(iCollectionSetFactory
LayeredCollectionSet
p0
(dp1
S'layers'
p2
(lp3
(lp4
(iCollectionSetFactory
Collection
p5
(dp6
S'elements'
p7
(lp8
I0
aI0
aI0
aI0
aI0
aI0
aI0
aI0
aI0
aI0
aI0
aI0
aI0
aI0
aI0
aI0
aI0
aI0
aI0
aI0
aI0
aI0
aI0
aI0
aI0
aI1
asS'links'
p9
(lp10
sS'isMaximal'
p11
I00
sS'boundness'
p12
I0
sS'support'
p13
I1728
sS'IRP'
p14
NsS'added_value'
p15
I518
sba(iCollectionSetFactory
Collection
p16
(dp17
g7
(lp18
I0
aI0
aI0
aI0
aI0
aI0
aI0
aI0
aI0
aI0
aI0
aI0
aI0
aI0
aI0
aI0
aI0
aI0
aI0
aI0
aI0
aI0
aI1
aI0
aI0
aI0
asg9
(lp19
sg11
I00
sg12
I0
sg13
I1210
sg14
Nsg15
I0
sba(iCollectionSetFactory
Collection
p20
(dp21
g7
(lp22
I0
aI0
aI0
aI0
aI0
aI0
aI0
aI0
aI0
aI0
aI0
aI0
aI0
aI0
aI0
aI0
aI0
aI0
aI0
aI0
aI1
aI0
aI0
aI0
aI0
aI0
asg9
(lp23
sg11
I00
sg12
I0
sg13
I576
sg14
Nsg15
I0
sba(iCollectionSetFactory
Collection
p24
(dp25
g7
(lp26
I0
aI0
aI0
aI0
aI0
aI0
aI0
aI0
aI0
aI0
aI0
aI0
aI0
aI0
aI0
aI0
aI0
aI0
aI0
aI1
aI0
aI0
aI0
aI0
aI0
aI0
asg9
(lp27
sg11
I00
sg12
I2
sg13
I576
sg14
Nsg15
I0
sba(iCollectionSetFactory
Collection
p28
(dp29
g7
(lp30
I0
aI0
aI0
aI0
aI0
aI0
aI0
aI0
aI0
aI0
aI0
aI0
aI0
aI0
aI0
aI0
aI0
aI0
aI1
aI0
aI0
aI0
aI0
aI0
aI0
aI0
asg9
(lp31
sg11
I00
sg12
I2
sg13
I576
sg14
Nsg15
I0
sba(iCollectionSetFactory
Collection
p32
(dp33
g7
(lp34
I0
aI0
aI0
aI0
aI0
aI0
aI0
aI0
aI0
aI0
aI0
aI0
aI0
aI0
aI0
aI0
aI0
aI1
aI0
aI0
aI0
aI0
aI0
aI0
aI0
aI0
asg9
(lp35
sg11
I00
sg12
I0
sg13
I576
sg14
Nsg15
I0
sba(iCollectionSetFactory
Collection
p36
(dp37
g7
(lp38
I0
aI0
aI0
aI0
aI0
aI0
aI0
aI0
aI0
aI0
aI0
aI0
aI0
aI0
aI0
aI0
aI1
aI0
aI0
aI0
aI0
aI0
aI0
aI0
aI0
aI0
asg9
(lp39
sg11
I00
sg12
I2
sg13
I576
sg14
Nsg15
I0
sba(iCollectionSetFactory
Collection
p40
(dp41
g7
(lp42
I0
aI0
aI0
aI0
aI0
aI0
aI0
aI0
aI0
aI0
aI0
aI0
aI0
aI0
aI0
aI1
aI0
aI0
aI0
aI0
aI0
aI0
aI0
aI0
aI0
aI0
asg9
(lp43
sg11
I00
sg12
I2
sg13
I576
sg14
Nsg15
I0
sba(iCollectionSetFactory
Collection
p44
(dp45
g7
(lp46
I0
aI0
aI0
aI0
aI0
aI0
aI0
aI0
aI0
aI0
aI0
aI0
aI0
aI0
aI1
aI0
aI0
aI0
aI0
aI0
aI0
aI0
aI0
aI0
aI0
aI0
asg9
(lp47
sg11
I00
sg12
I2
sg13
I576
sg14
Nsg15
I0
sba(iCollectionSetFactory
Collection
p48
(dp49
g7
(lp50
I0
aI0
aI0
aI0
aI0
aI0
aI0
aI0
aI0
aI0
aI0
aI0
aI0
aI1
aI0
aI0
aI0
aI0
aI0
aI0
aI0
aI0
aI0
aI0
aI0
aI0
asg9
(lp51
sg11
I00
sg12
I2
sg13
I576
sg14
Nsg15
I0
sba(iCollectionSetFactory
Collection
p52
(dp53
g7
(lp54
I0
aI0
aI0
aI0
aI0
aI0
aI0
aI0
aI0
aI0
aI0
aI0
aI1
aI0
aI0
aI0
aI0
aI0
aI0
aI0
aI0
aI0
aI0
aI0
aI0
aI0
asg9
(lp55
sg11
I00
sg12
I2
sg13
I576
sg14
Nsg15
I0
sba(iCollectionSetFactory
Collection
p56
(dp57
g7
(lp58
I0
aI0
aI0
aI0
aI0
aI0
aI0
aI0
aI0
aI0
aI0
aI1
aI0
aI0
aI0
aI0
aI0
aI0
aI0
aI0
aI0
aI0
aI0
aI0
aI0
aI0
asg9
(lp59
sg11
I00
sg12
I2
sg13
I432
sg14
Nsg15
I0
sba(iCollectionSetFactory
Collection
p60
(dp61
g7
(lp62
I0
aI0
aI0
aI0
aI0
aI0
aI0
aI0
aI0
aI0
aI1
aI0
aI0
aI0
aI0
aI0
aI0
aI0
aI0
aI0
aI0
aI0
aI0
aI0
aI0
aI0
asg9
(lp63
sg11
I00
sg12
I2
sg13
I432
sg14
Nsg15
I0
sba(iCollectionSetFactory
Collection
p64
(dp65
g7
(lp66
I0
aI0
aI0
aI0
aI0
aI0
aI0
aI0
aI0
aI1
aI0
aI0
aI0
aI0
aI0
aI0
aI0
aI0
aI0
aI0
aI0
aI0
aI0
aI0
aI0
aI0
asg9
(lp67
sg11
I00
sg12
I2
sg13
I432
sg14
Nsg15
I0
sba(iCollectionSetFactory
Collection
p68
(dp69
g7
(lp70
I0
aI0
aI0
aI0
aI0
aI0
aI0
aI0
aI1
aI0
aI0
aI0
aI0
aI0
aI0
aI0
aI0
aI0
aI0
aI0
aI0
aI0
aI0
aI0
aI0
aI0
asg9
(lp71
sg11
I00
sg12
I2
sg13
I432
sg14
Nsg15
I0
sba(iCollectionSetFactory
Collection
p72
(dp73
g7
(lp74
I0
aI0
aI0
aI0
aI0
aI0
aI0
aI1
aI0
aI0
aI0
aI0
aI0
aI0
aI0
aI0
aI0
aI0
aI0
aI0
aI0
aI0
aI0
aI0
aI0
aI0
asg9
(lp75
sg11
I00
sg12
I2
sg13
I432
sg14
Nsg15
I0
sba(iCollectionSetFactory
Collection
p76
(dp77
g7
(lp78
I0
aI0
aI0
aI0
aI0
aI0
aI1
aI0
aI0
aI0
aI0
aI0
aI0
aI0
aI0
aI0
aI0
aI0
aI0
aI0
aI0
aI0
aI0
aI0
aI0
aI0
asg9
(lp79
sg11
I00
sg12
I2
sg13
I432
sg14
Nsg15
I0
sba(iCollectionSetFactory
Collection
p80
(dp81
g7
(lp82
I0
aI0
aI0
aI0
aI0
aI1
aI0
aI0
aI0
aI0
aI0
aI0
aI0
aI0
aI0
aI0
aI0
aI0
aI0
aI0
aI0
aI0
aI0
aI0
aI0
aI0
asg9
(lp83
sg11
I00
sg12
I2
sg13
I432
sg14
Nsg15
I0
sba(iCollectionSetFactory
Collection
p84
(dp85
g7
(lp86
I0
aI0
aI0
aI0
aI1
aI0
aI0
aI0
aI0
aI0
aI0
aI0
aI0
aI0
aI0
aI0
aI0
aI0
aI0
aI0
aI0
aI0
aI0
aI0
aI0
aI0
asg9
(lp87
sg11
I00
sg12
I2
sg13
I432
sg14
Nsg15
I0
sba(iCollectionSetFactory
Collection
p88
(dp89
g7
(lp90
I0
aI0
aI0
aI1
aI0
aI0
aI0
aI0
aI0
aI0
aI0
aI0
aI0
aI0
aI0
aI0
aI0
aI0
aI0
aI0
aI0
aI0
aI0
aI0
aI0
aI0
asg9
(lp91
sg11
I00
sg12
I2
sg13
I432
sg14
Nsg15
I0
sba(iCollectionSetFactory
Collection
p92
(dp93
g7
(lp94
I0
aI0
aI1
aI0
aI0
aI0
aI0
aI0
aI0
aI0
aI0
aI0
aI0
aI0
aI0
aI0
aI0
aI0
aI0
aI0
aI0
aI0
aI0
aI0
aI0
aI0
asg9
(lp95
sg11
I00
sg12
I2
sg13
I432
sg14
Nsg15
I0
sba(iCollectionSetFactory
Collection
p96
(dp97
g7
(lp98
I0
aI1
aI0
aI0
aI0
aI0
aI0
aI0
aI0
aI0
aI0
aI0
aI0
aI0
aI0
aI0
aI0
aI0
aI0
aI0
aI0
aI0
aI0
aI0
aI0
aI0
asg9
(lp99
sg11
I00
sg12
I2
sg13
I432
sg14
Nsg15
I0
sba(iCollectionSetFactory
Collection
p100
(dp101
g7
(lp102
I1
aI0
aI0
aI0
aI0
aI0
aI0
aI0
aI0
aI0
aI0
aI0
aI0
aI0
aI0
aI0
aI0
aI0
aI0
aI0
aI0
aI0
aI0
aI0
aI0
aI0
asg9
(lp103
sg11
I00
sg12
I2
sg13
I432
sg14
Nsg15
I0
sba(iCollectionSetFactory
Collection
p104
(dp105
g7
(lp106
I0
aI0
aI0
aI0
aI0
aI0
aI0
aI0
aI0
aI0
aI0
aI0
aI0
aI0
aI0
aI0
aI0
aI0
aI0
aI0
aI0
aI1
aI0
aI0
aI0
aI0
asg9
(lp107
sg11
I00
sg12
I2
sg13
I384
sg14
Nsg15
I0
sbaa(lp108
(iCollectionSetFactory
Collection
p109
(dp110
g7
(lp111
I0
aI0
aI0
aI0
aI0
aI0
aI0
aI0
aI0
aI0
aI0
aI0
aI0
aI0
aI0
aI0
aI0
aI0
aI0
aI0
aI0
aI0
aI1
aI0
aI0
aI1
asg9
(lp112
(iCollectionSetFactory
CollectionLink
p113
(dp114
S'source'
p115
NsS'destination'
p116
g5
sS'type'
p117
S'child'
p118
sS'measure'
p119
Nsba(iCollectionSetFactory
CollectionLink
p120
(dp121
g115
Nsg116
g16
sg117
g118
sg119
Nsbasg11
I00
sg12
I0
sg13
I1210
sg14
F634.0
sg15
I634
sba(iCollectionSetFactory
Collection
p122
(dp123
g7
(lp124
I0
aI0
aI0
aI0
aI0
aI0
aI0
aI0
aI0
aI0
aI0
aI0
aI0
aI0
aI0
aI0
aI0
aI0
aI0
aI1
aI0
aI0
aI0
aI0
aI0
aI1
asg9
(lp125
sg11
I00
sg12
I2
sg13
I576
sg14
Nsg15
I219
sba(iCollectionSetFactory
Collection
p126
(dp127
g7
(lp128
I0
aI0
aI0
aI0
aI0
aI0
aI0
aI0
aI0
aI0
aI0
aI0
aI0
aI0
aI0
aI0
aI0
aI0
aI1
aI0
aI0
aI0
aI0
aI0
aI0
aI1
asg9
(lp129
sg11
I00
sg12
I2
sg13
I576
sg14
Nsg15
I299
sba(iCollectionSetFactory
Collection
p130
(dp131
g7
(lp132
I0
aI0
aI0
aI0
aI0
aI0
aI0
aI0
aI0
aI0
aI0
aI0
aI0
aI0
aI0
aI0
aI0
aI1
aI0
aI0
aI0
aI0
aI0
aI0
aI0
aI1
asg9
(lp133
sg11
I00
sg12
I2
sg13
I576
sg14
Nsg15
I208
sba(iCollectionSetFactory
Collection
p134
(dp135
g7
(lp136
I0
aI0
aI0
aI0
aI0
aI0
aI0
aI0
aI0
aI0
aI0
aI0
aI0
aI0
aI0
aI0
aI1
aI0
aI0
aI0
aI0
aI0
aI0
aI0
aI0
aI1
asg9
(lp137
sg11
I00
sg12
I2
sg13
I576
sg14
Nsg15
I184
sba(iCollectionSetFactory
Collection
p138
(dp139
g7
(lp140
I0
aI0
aI0
aI0
aI0
aI0
aI0
aI0
aI0
aI0
aI0
aI0
aI0
aI0
aI0
aI1
aI0
aI0
aI0
aI0
aI0
aI0
aI0
aI0
aI0
aI1
asg9
(lp141
sg11
I00
sg12
I2
sg13
I576
sg14
Nsg15
I126
sba(iCollectionSetFactory
Collection
p142
(dp143
g7
(lp144
I0
aI0
aI0
aI0
aI0
aI0
aI0
aI0
aI0
aI0
aI0
aI0
aI0
aI0
aI1
aI0
aI0
aI0
aI0
aI0
aI0
aI0
aI0
aI0
aI0
aI1
asg9
(lp145
sg11
I00
sg12
I2
sg13
I576
sg14
Nsg15
I254
sba(iCollectionSetFactory
Collection
p146
(dp147
g7
(lp148
I0
aI0
aI0
aI0
aI0
aI0
aI0
aI0
aI0
aI0
aI0
aI0
aI0
aI1
aI0
aI0
aI0
aI0
aI0
aI0
aI0
aI0
aI0
aI0
aI0
aI1
asg9
(lp149
sg11
I00
sg12
I2
sg13
I576
sg14
Nsg15
I264
sba(iCollectionSetFactory
Collection
p150
(dp151
g7
(lp152
I0
aI0
aI0
aI0
aI0
aI0
aI0
aI0
aI0
aI0
aI0
aI1
aI0
aI0
aI0
aI0
aI0
aI0
aI0
aI0
aI0
aI0
aI0
aI0
aI0
aI1
asg9
(lp153
sg11
I00
sg12
I2
sg13
I432
sg14
Nsg15
I140
sba(iCollectionSetFactory
Collection
p154
(dp155
g7
(lp156
I0
aI0
aI0
aI0
aI0
aI0
aI0
aI0
aI0
aI0
aI1
aI0
aI0
aI0
aI0
aI0
aI0
aI0
aI0
aI0
aI0
aI0
aI0
aI0
aI0
aI1
asg9
(lp157
sg11
I00
sg12
I2
sg13
I432
sg14
Nsg15
I106
sba(iCollectionSetFactory
Collection
p158
(dp159
g7
(lp160
I0
aI0
aI0
aI0
aI0
aI0
aI0
aI0
aI0
aI1
aI0
aI0
aI0
aI0
aI0
aI0
aI0
aI0
aI0
aI0
aI0
aI0
aI0
aI0
aI0
aI1
asg9
(lp161
sg11
I00
sg12
I2
sg13
I432
sg14
Nsg15
I132
sba(iCollectionSetFactory
Collection
p162
(dp163
g7
(lp164
I0
aI0
aI0
aI0
aI0
aI0
aI0
aI0
aI1
aI0
aI0
aI0
aI0
aI0
aI0
aI0
aI0
aI0
aI0
aI0
aI0
aI0
aI0
aI0
aI0
aI1
asg9
(lp165
sg11
I00
sg12
I2
sg13
I432
sg14
Nsg15
I140
sba(iCollectionSetFactory
Collection
p166
(dp167
g7
(lp168
I0
aI0
aI0
aI0
aI0
aI0
aI0
aI1
aI0
aI0
aI0
aI0
aI0
aI0
aI0
aI0
aI0
aI0
aI0
aI0
aI0
aI0
aI0
aI0
aI0
aI1
asg9
(lp169
sg11
I00
sg12
I2
sg13
I432
sg14
Nsg15
I164
sba(iCollectionSetFactory
Collection
p170
(dp171
g7
(lp172
I0
aI0
aI0
aI0
aI0
aI0
aI1
aI0
aI0
aI0
aI0
aI0
aI0
aI0
aI0
aI0
aI0
aI0
aI0
aI0
aI0
aI0
aI0
aI0
aI0
aI1
asg9
(lp173
sg11
I00
sg12
I2
sg13
I432
sg14
Nsg15
I72
sba(iCollectionSetFactory
Collection
p174
(dp175
g7
(lp176
I0
aI0
aI0
aI0
aI0
aI1
aI0
aI0
aI0
aI0
aI0
aI0
aI0
aI0
aI0
aI0
aI0
aI0
aI0
aI0
aI0
aI0
aI0
aI0
aI0
aI1
asg9
(lp177
sg11
I00
sg12
I2
sg13
I432
sg14
Nsg15
I164
sba(iCollectionSetFactory
Collection
p178
(dp179
g7
(lp180
I0
aI0
aI0
aI0
aI1
aI0
aI0
aI0
aI0
aI0
aI0
aI0
aI0
aI0
aI0
aI0
aI0
aI0
aI0
aI0
aI0
aI0
aI0
aI0
aI0
aI1
asg9
(lp181
sg11
I00
sg12
I2
sg13
I432
sg14
Nsg15
I118
sba(iCollectionSetFactory
Collection
p182
(dp183
g7
(lp184
I0
aI0
aI0
aI1
aI0
aI0
aI0
aI0
aI0
aI0
aI0
aI0
aI0
aI0
aI0
aI0
aI0
aI0
aI0
aI0
aI0
aI0
aI0
aI0
aI0
aI1
asg9
(lp185
sg11
I00
sg12
I2
sg13
I432
sg14
Nsg15
I174
sba(iCollectionSetFactory
Collection
p186
(dp187
g7
(lp188
I0
aI0
aI1
aI0
aI0
aI0
aI0
aI0
aI0
aI0
aI0
aI0
aI0
aI0
aI0
aI0
aI0
aI0
aI0
aI0
aI0
aI0
aI0
aI0
aI0
aI1
asg9
(lp189
sg11
I00
sg12
I2
sg13
I432
sg14
Nsg15
I72
sba(iCollectionSetFactory
Collection
p190
(dp191
g7
(lp192
I0
aI1
aI0
aI0
aI0
aI0
aI0
aI0
aI0
aI0
aI0
aI0
aI0
aI0
aI0
aI0
aI0
aI0
aI0
aI0
aI0
aI0
aI0
aI0
aI0
aI1
asg9
(lp193
sg11
I00
sg12
I2
sg13
I432
sg14
Nsg15
I164
sba(iCollectionSetFactory
Collection
p194
(dp195
g7
(lp196
I1
aI0
aI0
aI0
aI0
aI0
aI0
aI0
aI0
aI0
aI0
aI0
aI0
aI0
aI0
aI0
aI0
aI0
aI0
aI0
aI0
aI0
aI0
aI0
aI0
aI1
asg9
(lp197
sg11
I00
sg12
I2
sg13
I432
sg14
Nsg15
I108
sba(iCollectionSetFactory
Collection
p198
(dp199
g7
(lp200
I0
aI0
aI0
aI0
aI0
aI0
aI0
aI0
aI0
aI0
aI0
aI0
aI0
aI0
aI0
aI0
aI0
aI0
aI0
aI0
aI0
aI1
aI0
aI0
aI0
aI1
asg9
(lp201
sg11
I00
sg12
I2
sg13
I384
sg14
Nsg15
I180
sbaa(lp202
(iCollectionSetFactory
Collection
p203
(dp204
g7
(lp205
I0
aI0
aI0
aI0
aI0
aI0
aI0
aI0
aI0
aI0
aI0
aI0
aI0
aI0
aI0
aI0
aI0
aI0
aI0
aI0
aI1
aI0
aI1
aI0
aI0
aI1
asg9
(lp206
(iCollectionSetFactory
CollectionLink
p207
(dp208
g115
Nsg116
g109
sg117
g118
sg119
Nsba(iCollectionSetFactory
CollectionLink
p209
(dp210
g115
Nsg116
g20
sg117
g118
sg119
Nsbasg11
I00
sg12
I0
sg13
I576
sg14
F1152.0
sg15
I384
sba(iCollectionSetFactory
Collection
p211
(dp212
g7
(lp213
I0
aI0
aI0
aI0
aI0
aI0
aI0
aI0
aI0
aI0
aI0
aI0
aI1
aI0
aI0
aI0
aI0
aI0
aI0
aI0
aI0
aI0
aI1
aI0
aI0
aI1
asg9
(lp214
sg11
I00
sg12
I2
sg13
I576
sg14
Nsg15
I384
sba(iCollectionSetFactory
Collection
p215
(dp216
g7
(lp217
I0
aI0
aI0
aI0
aI0
aI0
aI0
aI0
aI0
aI0
aI0
aI0
aI0
aI0
aI0
aI1
aI0
aI0
aI0
aI0
aI0
aI0
aI1
aI0
aI0
aI1
asg9
(lp218
sg11
I00
sg12
I2
sg13
I450
sg14
Nsg15
I258
sba(iCollectionSetFactory
Collection
p219
(dp220
g7
(lp221
I0
aI0
aI0
aI0
aI0
aI0
aI0
aI0
aI0
aI0
aI0
aI0
aI0
aI0
aI0
aI0
aI1
aI0
aI0
aI0
aI0
aI0
aI1
aI0
aI0
aI1
asg9
(lp222
sg11
I00
sg12
I2
sg13
I392
sg14
Nsg15
I200
sba(iCollectionSetFactory
Collection
p223
(dp224
g7
(lp225
I0
aI0
aI0
aI0
aI0
aI0
aI0
aI0
aI0
aI0
aI0
aI0
aI0
aI0
aI0
aI0
aI0
aI1
aI0
aI0
aI0
aI0
aI1
aI0
aI0
aI1
asg9
(lp226
sg11
I00
sg12
I2
sg13
I368
sg14
Nsg15
I176
sba(iCollectionSetFactory
Collection
p227
(dp228
g7
(lp229
I0
aI0
aI0
aI0
aI0
aI0
aI1
aI0
aI0
aI0
aI0
aI0
aI0
aI0
aI0
aI0
aI0
aI0
aI0
aI0
aI0
aI0
aI1
aI0
aI0
aI1
asg9
(lp230
sg11
I00
sg12
I2
sg13
I360
sg14
Nsg15
I216
sba(iCollectionSetFactory
Collection
p231
(dp232
g7
(lp233
I0
aI0
aI1
aI0
aI0
aI0
aI0
aI0
aI0
aI0
aI0
aI0
aI0
aI0
aI0
aI0
aI0
aI0
aI0
aI0
aI0
aI0
aI1
aI0
aI0
aI1
asg9
(lp234
sg11
I00
sg12
I2
sg13
I360
sg14
Nsg15
I216
sba(iCollectionSetFactory
Collection
p235
(dp236
g7
(lp237
I0
aI0
aI0
aI0
aI0
aI0
aI0
aI0
aI0
aI0
aI0
aI0
aI0
aI0
aI0
aI0
aI0
aI0
aI0
aI1
aI0
aI0
aI1
aI0
aI0
aI1
asg9
(lp238
sg11
I00
sg12
I2
sg13
I357
sg14
Nsg15
I165
sba(iCollectionSetFactory
Collection
p239
(dp240
g7
(lp241
I0
aI0
aI0
aI0
aI0
aI0
aI0
aI0
aI0
aI0
aI1
aI0
aI0
aI0
aI0
aI0
aI0
aI0
aI0
aI0
aI0
aI0
aI1
aI0
aI0
aI1
asg9
(lp242
sg11
I00
sg12
I2
sg13
I326
sg14
Nsg15
I182
sba(iCollectionSetFactory
Collection
p243
(dp244
g7
(lp245
I1
aI0
aI0
aI0
aI0
aI0
aI0
aI0
aI0
aI0
aI0
aI0
aI0
aI0
aI0
aI0
aI0
aI0
aI0
aI0
aI0
aI0
aI1
aI0
aI0
aI1
asg9
(lp246
sg11
I00
sg12
I2
sg13
I324
sg14
Nsg15
I180
sba(iCollectionSetFactory
Collection
p247
(dp248
g7
(lp249
I0
aI0
aI0
aI0
aI0
aI0
aI0
aI0
aI0
aI0
aI0
aI0
aI0
aI0
aI1
aI0
aI0
aI0
aI0
aI0
aI0
aI0
aI1
aI0
aI0
aI1
asg9
(lp250
sg11
I00
sg12
I2
sg13
I322
sg14
Nsg15
I130
sba(iCollectionSetFactory
Collection
p251
(dp252
g7
(lp253
I0
aI0
aI0
aI0
aI1
aI0
aI0
aI0
aI0
aI0
aI0
aI0
aI0
aI0
aI0
aI0
aI0
aI0
aI0
aI0
aI0
aI0
aI1
aI0
aI0
aI1
asg9
(lp254
sg11
I00
sg12
I2
sg13
I314
sg14
Nsg15
I170
sba(iCollectionSetFactory
Collection
p255
(dp256
g7
(lp257
I0
aI0
aI0
aI0
aI0
aI0
aI0
aI0
aI0
aI0
aI0
aI0
aI0
aI1
aI0
aI0
aI0
aI0
aI0
aI0
aI0
aI0
aI1
aI0
aI0
aI1
asg9
(lp258
sg11
I00
sg12
I2
sg13
I312
sg14
Nsg15
I120
sba(iCollectionSetFactory
Collection
p259
(dp260
g7
(lp261
I0
aI0
aI0
aI0
aI0
aI0
aI0
aI0
aI0
aI1
aI0
aI0
aI0
aI0
aI0
aI0
aI0
aI0
aI0
aI0
aI0
aI0
aI1
aI0
aI0
aI1
asg9
(lp262
sg11
I00
sg12
I2
sg13
I300
sg14
Nsg15
I156
sba(iCollectionSetFactory
Collection
p263
(dp264
g7
(lp265
I0
aI0
aI0
aI0
aI0
aI0
aI0
aI0
aI0
aI0
aI0
aI1
aI0
aI0
aI0
aI0
aI0
aI0
aI0
aI0
aI0
aI0
aI1
aI0
aI0
aI1
asg9
(lp266
sg11
I00
sg12
I2
sg13
I292
sg14
Nsg15
I148
sba(iCollectionSetFactory
Collection
p267
(dp268
g7
(lp269
I0
aI0
aI0
aI0
aI0
aI0
aI0
aI0
aI1
aI0
aI0
aI0
aI0
aI0
aI0
aI0
aI0
aI0
aI0
aI0
aI0
aI0
aI1
aI0
aI0
aI1
asg9
(lp270
sg11
I00
sg12
I2
sg13
I292
sg14
Nsg15
I148
sba(iCollectionSetFactory
Collection
p271
(dp272
g7
(lp273
I0
aI0
aI0
aI0
aI0
aI0
aI0
aI0
aI0
aI0
aI0
aI0
aI0
aI0
aI0
aI0
aI0
aI0
aI1
aI0
aI0
aI0
aI1
aI0
aI0
aI1
asg9
(lp274
sg11
I00
sg12
I2
sg13
I277
sg14
Nsg15
I85
sba(iCollectionSetFactory
Collection
p275
(dp276
g7
(lp277
I0
aI0
aI0
aI0
aI0
aI0
aI0
aI1
aI0
aI0
aI0
aI0
aI0
aI0
aI0
aI0
aI0
aI0
aI0
aI0
aI0
aI0
aI1
aI0
aI0
aI1
asg9
(lp278
sg11
I00
sg12
I2
sg13
I268
sg14
Nsg15
I124
sba(iCollectionSetFactory
Collection
p279
(dp280
g7
(lp281
I0
aI0
aI0
aI0
aI0
aI1
aI0
aI0
aI0
aI0
aI0
aI0
aI0
aI0
aI0
aI0
aI0
aI0
aI0
aI0
aI0
aI0
aI1
aI0
aI0
aI1
asg9
(lp282
sg11
I00
sg12
I2
sg13
I268
sg14
Nsg15
I124
sba(iCollectionSetFactory
Collection
p283
(dp284
g7
(lp285
I0
aI1
aI0
aI0
aI0
aI0
aI0
aI0
aI0
aI0
aI0
aI0
aI0
aI0
aI0
aI0
aI0
aI0
aI0
aI0
aI0
aI0
aI1
aI0
aI0
aI1
asg9
(lp286
sg11
I00
sg12
I2
sg13
I268
sg14
Nsg15
I124
sba(iCollectionSetFactory
Collection
p287
(dp288
g7
(lp289
I0
aI0
aI0
aI1
aI0
aI0
aI0
aI0
aI0
aI0
aI0
aI0
aI0
aI0
aI0
aI0
aI0
aI0
aI0
aI0
aI0
aI0
aI1
aI0
aI0
aI1
asg9
(lp290
sg11
I00
sg12
I2
sg13
I258
sg14
Nsg15
I114
sba(iCollectionSetFactory
Collection
p291
(dp292
g7
(lp293
I0
aI0
aI0
aI0
aI0
aI0
aI0
aI0
aI0
aI0
aI0
aI0
aI0
aI0
aI0
aI0
aI0
aI0
aI1
aI0
aI0
aI1
aI0
aI0
aI0
aI1
asg9
(lp294
sg11
I00
sg12
I2
sg13
I204
sg14
Nsg15
I96
sba(iCollectionSetFactory
Collection
p295
(dp296
g7
(lp297
I0
aI0
aI0
aI0
aI0
aI0
aI0
aI0
aI0
aI0
aI0
aI0
aI0
aI1
aI0
aI0
aI0
aI0
aI0
aI0
aI0
aI1
aI0
aI0
aI0
aI1
asg9
(lp298
sg11
I00
sg12
I2
sg13
I198
sg14
Nsg15
I90
sba(iCollectionSetFactory
Collection
p299
(dp300
g7
(lp301
I0
aI0
aI0
aI0
aI0
aI0
aI0
aI0
aI0
aI0
aI0
aI0
aI0
aI0
aI0
aI0
aI0
aI1
aI0
aI1
aI0
aI0
aI0
aI0
aI0
aI1
asg9
(lp302
sg11
I01
sg12
I2
sg13
I192
sg14
Nsg15
I192
sba(iCollectionSetFactory
Collection
p303
(dp304
g7
(lp305
I0
aI0
aI0
aI0
aI0
aI0
aI0
aI0
aI0
aI0
aI0
aI0
aI0
aI0
aI0
aI0
aI0
aI1
aI1
aI0
aI0
aI0
aI0
aI0
aI0
aI1
asg9
(lp306
sg11
I01
sg12
I2
sg13
I192
sg14
Nsg15
I192
sba(iCollectionSetFactory
Collection
p307
(dp308
g7
(lp309
I0
aI0
aI0
aI0
aI0
aI0
aI0
aI0
aI0
aI0
aI0
aI0
aI0
aI0
aI0
aI0
aI1
aI0
aI0
aI1
aI0
aI0
aI0
aI0
aI0
aI1
asg9
(lp310
sg11
I00
sg12
I2
sg13
I192
sg14
Nsg15
I80
sba(iCollectionSetFactory
Collection
p311
(dp312
g7
(lp313
I0
aI0
aI0
aI0
aI0
aI0
aI0
aI0
aI0
aI0
aI0
aI0
aI0
aI0
aI0
aI0
aI1
aI0
aI1
aI0
aI0
aI0
aI0
aI0
aI0
aI1
asg9
(lp314
sg11
I01
sg12
I2
sg13
I192
sg14
Nsg15
I192
sba(iCollectionSetFactory
Collection
p315
(dp316
g7
(lp317
I0
aI0
aI0
aI0
aI0
aI0
aI0
aI0
aI0
aI0
aI0
aI0
aI0
aI0
aI0
aI1
aI0
aI0
aI0
aI1
aI0
aI0
aI0
aI0
aI0
aI1
asg9
(lp318
sg11
I00
sg12
I2
sg13
I192
sg14
Nsg15
I35
sba(iCollectionSetFactory
Collection
p319
(dp320
g7
(lp321
I0
aI0
aI0
aI0
aI0
aI0
aI0
aI0
aI0
aI0
aI0
aI0
aI0
aI0
aI0
aI1
aI0
aI0
aI1
aI0
aI0
aI0
aI0
aI0
aI0
aI1
asg9
(lp322
sg11
I00
sg12
I2
sg13
I192
sg14
Nsg15
I91
sba(iCollectionSetFactory
Collection
p323
(dp324
g7
(lp325
I0
aI0
aI0
aI0
aI0
aI0
aI0
aI0
aI0
aI0
aI0
aI0
aI0
aI0
aI1
aI0
aI0
aI0
aI0
aI1
aI0
aI0
aI0
aI0
aI0
aI1
asg9
(lp326
sg11
I01
sg12
I2
sg13
I192
sg14
Nsg15
I192
sba(iCollectionSetFactory
Collection
p327
(dp328
g7
(lp329
I0
aI0
aI0
aI0
aI0
aI0
aI0
aI0
aI0
aI0
aI0
aI0
aI0
aI0
aI1
aI0
aI0
aI0
aI1
aI0
aI0
aI0
aI0
aI0
aI0
aI1
asg9
(lp330
sg11
I01
sg12
I2
sg13
I192
sg14
Nsg15
I192
sba(iCollectionSetFactory
Collection
p331
(dp332
g7
(lp333
I0
aI0
aI0
aI0
aI0
aI0
aI0
aI0
aI0
aI0
aI0
aI0
aI0
aI0
aI1
aI0
aI0
aI1
aI0
aI0
aI0
aI0
aI0
aI0
aI0
aI1
asg9
(lp334
sg11
I01
sg12
I2
sg13
I192
sg14
Nsg15
I192
sba(iCollectionSetFactory
Collection
p335
(dp336
g7
(lp337
I0
aI0
aI0
aI0
aI0
aI0
aI0
aI0
aI0
aI0
aI0
aI0
aI0
aI0
aI1
aI0
aI1
aI0
aI0
aI0
aI0
aI0
aI0
aI0
aI0
aI1
asg9
(lp338
sg11
I01
sg12
I2
sg13
I192
sg14
Nsg15
I192
sba(iCollectionSetFactory
Collection
p339
(dp340
g7
(lp341
I0
aI0
aI0
aI0
aI0
aI0
aI0
aI0
aI0
aI0
aI0
aI0
aI0
aI0
aI1
aI1
aI0
aI0
aI0
aI0
aI0
aI0
aI0
aI0
aI0
aI1
asg9
(lp342
sg11
I00
sg12
I2
sg13
I192
sg14
Nsg15
I54
sba(iCollectionSetFactory
Collection
p343
(dp344
g7
(lp345
I0
aI0
aI0
aI0
aI0
aI0
aI0
aI0
aI0
aI0
aI0
aI0
aI0
aI1
aI0
aI0
aI0
aI0
aI0
aI1
aI0
aI0
aI0
aI0
aI0
aI1
asg9
(lp346
sg11
I01
sg12
I2
sg13
I192
sg14
Nsg15
I192
sba(iCollectionSetFactory
Collection
p347
(dp348
g7
(lp349
I0
aI0
aI0
aI0
aI0
aI0
aI0
aI0
aI0
aI0
aI0
aI0
aI0
aI1
aI0
aI0
aI0
aI0
aI1
aI0
aI0
aI0
aI0
aI0
aI0
aI1
asg9
(lp350
sg11
I00
sg12
I2
sg13
I192
sg14
Nsg15
I84
sba(iCollectionSetFactory
Collection
p351
(dp352
g7
(lp353
I0
aI0
aI0
aI0
aI0
aI0
aI0
aI0
aI0
aI0
aI0
aI0
aI0
aI1
aI0
aI0
aI0
aI1
aI0
aI0
aI0
aI0
aI0
aI0
aI0
aI1
asg9
(lp354
sg11
I01
sg12
I2
sg13
I192
sg14
Nsg15
I192
sba(iCollectionSetFactory
Collection
p355
(dp356
g7
(lp357
I0
aI0
aI0
aI0
aI0
aI0
aI0
aI0
aI0
aI0
aI0
aI0
aI0
aI1
aI0
aI0
aI1
aI0
aI0
aI0
aI0
aI0
aI0
aI0
aI0
aI1
asg9
(lp358
sg11
I00
sg12
I2
sg13
I192
sg14
Nsg15
I88
sba(iCollectionSetFactory
Collection
p359
(dp360
g7
(lp361
I0
aI0
aI0
aI0
aI0
aI0
aI0
aI0
aI0
aI0
aI0
aI0
aI0
aI1
aI0
aI1
aI0
aI0
aI0
aI0
aI0
aI0
aI0
aI0
aI0
aI1
asg9
(lp362
sg11
I00
sg12
I2
sg13
I192
sg14
Nsg15
I72
sba(iCollectionSetFactory
Collection
p363
(dp364
g7
(lp365
I0
aI0
aI0
aI0
aI0
aI0
aI0
aI0
aI0
aI0
aI0
aI0
aI0
aI0
aI1
aI0
aI0
aI0
aI0
aI0
aI0
aI1
aI0
aI0
aI0
aI1
asg9
(lp366
sg11
I01
sg12
I2
sg13
I186
sg14
Nsg15
I186
sba(iCollectionSetFactory
Collection
p367
(dp368
g7
(lp369
I0
aI0
aI0
aI0
aI0
aI0
aI0
aI0
aI0
aI0
aI0
aI0
aI0
aI0
aI0
aI0
aI0
aI0
aI0
aI1
aI0
aI1
aI0
aI0
aI0
aI1
asg9
(lp370
sg11
I01
sg12
I2
sg13
I180
sg14
Nsg15
I180
sba(iCollectionSetFactory
Collection
p371
(dp372
g7
(lp373
I0
aI0
aI0
aI0
aI0
aI0
aI0
aI0
aI0
aI0
aI0
aI0
aI0
aI0
aI0
aI0
aI0
aI1
aI0
aI0
aI0
aI1
aI0
aI0
aI0
aI1
asg9
(lp374
sg11
I01
sg12
I2
sg13
I144
sg14
Nsg15
I144
sba(iCollectionSetFactory
Collection
p375
(dp376
g7
(lp377
I0
aI0
aI0
aI0
aI0
aI0
aI0
aI0
aI0
aI0
aI0
aI1
aI0
aI0
aI0
aI0
aI0
aI0
aI0
aI1
aI0
aI0
aI0
aI0
aI0
aI1
asg9
(lp378
sg11
I01
sg12
I2
sg13
I144
sg14
Nsg15
I144
sba(iCollectionSetFactory
Collection
p379
(dp380
g7
(lp381
I0
aI0
aI0
aI0
aI0
aI0
aI0
aI0
aI0
aI0
aI0
aI1
aI0
aI0
aI0
aI0
aI0
aI0
aI1
aI0
aI0
aI0
aI0
aI0
aI0
aI1
asg9
(lp382
sg11
I01
sg12
I2
sg13
I144
sg14
Nsg15
I144
sba(iCollectionSetFactory
Collection
p383
(dp384
g7
(lp385
I0
aI0
aI0
aI0
aI0
aI0
aI0
aI0
aI0
aI0
aI0
aI1
aI0
aI0
aI0
aI0
aI0
aI1
aI0
aI0
aI0
aI0
aI0
aI0
aI0
aI1
asg9
(lp386
sg11
I01
sg12
I2
sg13
I144
sg14
Nsg15
I144
sba(iCollectionSetFactory
Collection
p387
(dp388
g7
(lp389
I0
aI0
aI0
aI0
aI0
aI0
aI0
aI0
aI0
aI0
aI0
aI1
aI0
aI0
aI0
aI0
aI1
aI0
aI0
aI0
aI0
aI0
aI0
aI0
aI0
aI1
asg9
(lp390
sg11
I01
sg12
I2
sg13
I144
sg14
Nsg15
I144
sba(iCollectionSetFactory
Collection
p391
(dp392
g7
(lp393
I0
aI0
aI0
aI0
aI0
aI0
aI0
aI0
aI0
aI0
aI0
aI1
aI0
aI0
aI0
aI1
aI0
aI0
aI0
aI0
aI0
aI0
aI0
aI0
aI0
aI1
asg9
(lp394
sg11
I00
sg12
I2
sg13
I144
sg14
Nsg15
I36
sba(iCollectionSetFactory
Collection
p395
(dp396
g7
(lp397
I0
aI0
aI0
aI0
aI0
aI0
aI0
aI0
aI0
aI0
aI0
aI1
aI0
aI0
aI1
aI0
aI0
aI0
aI0
aI0
aI0
aI0
aI0
aI0
aI0
aI1
asg9
(lp398
sg11
I01
sg12
I2
sg13
I144
sg14
Nsg15
I144
sba(iCollectionSetFactory
Collection
p399
(dp400
g7
(lp401
I0
aI0
aI0
aI0
aI0
aI0
aI0
aI0
aI0
aI0
aI0
aI1
aI0
aI1
aI0
aI0
aI0
aI0
aI0
aI0
aI0
aI0
aI0
aI0
aI0
aI1
asg9
(lp402
sg11
I01
sg12
I2
sg13
I144
sg14
Nsg15
I144
sba(iCollectionSetFactory
Collection
p403
(dp404
g7
(lp405
I0
aI0
aI0
aI0
aI0
aI0
aI0
aI0
aI0
aI0
aI1
aI0
aI0
aI0
aI0
aI0
aI0
aI0
aI0
aI1
aI0
aI0
aI0
aI0
aI0
aI1
asg9
(lp406
sg11
I00
sg12
I2
sg13
I144
sg14
Nsg15
I41
sba(iCollectionSetFactory
Collection
p407
(dp408
g7
(lp409
I0
aI0
aI0
aI0
aI0
aI0
aI0
aI0
aI0
aI0
aI1
aI0
aI0
aI0
aI0
aI0
aI0
aI0
aI1
aI0
aI0
aI0
aI0
aI0
aI0
aI1
asg9
(lp410
sg11
I01
sg12
I2
sg13
I144
sg14
Nsg15
I144
sba(iCollectionSetFactory
Collection
p411
(dp412
g7
(lp413
I0
aI0
aI0
aI0
aI0
aI0
aI0
aI0
aI0
aI0
aI1
aI0
aI0
aI0
aI0
aI0
aI0
aI1
aI0
aI0
aI0
aI0
aI0
aI0
aI0
aI1
asg9
(lp414
sg11
I01
sg12
I2
sg13
I144
sg14
Nsg15
I144
sba(iCollectionSetFactory
Collection
p415
(dp416
g7
(lp417
I0
aI0
aI0
aI0
aI0
aI0
aI0
aI0
aI0
aI0
aI1
aI0
aI0
aI0
aI0
aI0
aI1
aI0
aI0
aI0
aI0
aI0
aI0
aI0
aI0
aI1
asg9
(lp418
sg11
I00
sg12
I2
sg13
I144
sg14
Nsg15
I36
sba(iCollectionSetFactory
Collection
p419
(dp420
g7
(lp421
I0
aI0
aI0
aI0
aI0
aI0
aI0
aI0
aI0
aI0
aI1
aI0
aI0
aI0
aI0
aI1
aI0
aI0
aI0
aI0
aI0
aI0
aI0
aI0
aI0
aI1
asg9
(lp422
sg11
I00
sg12
I2
sg13
I144
sg14
Nsg15
I18
sba(iCollectionSetFactory
Collection
p423
(dp424
g7
(lp425
I0
aI0
aI0
aI0
aI0
aI0
aI0
aI0
aI0
aI0
aI1
aI0
aI0
aI0
aI1
aI0
aI0
aI0
aI0
aI0
aI0
aI0
aI0
aI0
aI0
aI1
asg9
(lp426
sg11
I00
sg12
I2
sg13
I144
sg14
Nsg15
I44
sba(iCollectionSetFactory
Collection
p427
(dp428
g7
(lp429
I0
aI0
aI0
aI0
aI0
aI0
aI0
aI0
aI0
aI0
aI1
aI0
aI0
aI1
aI0
aI0
aI0
aI0
aI0
aI0
aI0
aI0
aI0
aI0
aI0
aI1
asg9
(lp430
sg11
I01
sg12
I2
sg13
I144
sg14
Nsg15
I144
sba(iCollectionSetFactory
Collection
p431
(dp432
g7
(lp433
I0
aI0
aI0
aI0
aI0
aI0
aI0
aI0
aI0
aI1
aI0
aI0
aI0
aI0
aI0
aI0
aI0
aI0
aI0
aI1
aI0
aI0
aI0
aI0
aI0
aI1
asg9
(lp434
sg11
I01
sg12
I2
sg13
I144
sg14
Nsg15
I144
sba(iCollectionSetFactory
Collection
p435
(dp436
g7
(lp437
I0
aI0
aI0
aI0
aI0
aI0
aI0
aI0
aI0
aI1
aI0
aI0
aI0
aI0
aI0
aI0
aI0
aI0
aI1
aI0
aI0
aI0
aI0
aI0
aI0
aI1
asg9
(lp438
sg11
I01
sg12
I2
sg13
I144
sg14
Nsg15
I144
sba(iCollectionSetFactory
Collection
p439
(dp440
g7
(lp441
I0
aI0
aI0
aI0
aI0
aI0
aI0
aI0
aI0
aI1
aI0
aI0
aI0
aI0
aI0
aI0
aI0
aI1
aI0
aI0
aI0
aI0
aI0
aI0
aI0
aI1
asg9
(lp442
sg11
I01
sg12
I2
sg13
I144
sg14
Nsg15
I144
sba(iCollectionSetFactory
Collection
p443
(dp444
g7
(lp445
I0
aI0
aI0
aI0
aI0
aI0
aI0
aI0
aI0
aI1
aI0
aI0
aI0
aI0
aI0
aI0
aI1
aI0
aI0
aI0
aI0
aI0
aI0
aI0
aI0
aI1
asg9
(lp446
sg11
I00
sg12
I2
sg13
I144
sg14
Nsg15
I44
sba(iCollectionSetFactory
Collection
p447
(dp448
g7
(lp449
I0
aI0
aI0
aI0
aI0
aI0
aI0
aI0
aI0
aI1
aI0
aI0
aI0
aI0
aI0
aI1
aI0
aI0
aI0
aI0
aI0
aI0
aI0
aI0
aI0
aI1
asg9
(lp450
sg11
I00
sg12
I2
sg13
I144
sg14
Nsg15
I36
sba(iCollectionSetFactory
Collection
p451
(dp452
g7
(lp453
I0
aI0
aI0
aI0
aI0
aI0
aI0
aI0
aI0
aI1
aI0
aI0
aI0
aI0
aI1
aI0
aI0
aI0
aI0
aI0
aI0
aI0
aI0
aI0
aI0
aI1
asg9
(lp454
sg11
I01
sg12
I2
sg13
I144
sg14
Nsg15
I144
sba(iCollectionSetFactory
Collection
p455
(dp456
g7
(lp457
I0
aI0
aI0
aI0
aI0
aI0
aI0
aI0
aI0
aI1
aI0
aI0
aI0
aI1
aI0
aI0
aI0
aI0
aI0
aI0
aI0
aI0
aI0
aI0
aI0
aI1
asg9
(lp458
sg11
I01
sg12
I2
sg13
I144
sg14
Nsg15
I144
sba(iCollectionSetFactory
Collection
p459
(dp460
g7
(lp461
I0
aI0
aI0
aI0
aI0
aI0
aI0
aI0
aI1
aI0
aI0
aI0
aI0
aI0
aI0
aI0
aI0
aI0
aI0
aI1
aI0
aI0
aI0
aI0
aI0
aI1
asg9
(lp462
sg11
I01
sg12
I2
sg13
I144
sg14
Nsg15
I144
sba(iCollectionSetFactory
Collection
p463
(dp464
g7
(lp465
I0
aI0
aI0
aI0
aI0
aI0
aI0
aI0
aI1
aI0
aI0
aI0
aI0
aI0
aI0
aI0
aI0
aI0
aI1
aI0
aI0
aI0
aI0
aI0
aI0
aI1
asg9
(lp466
sg11
I01
sg12
I2
sg13
I144
sg14
Nsg15
I144
sba(iCollectionSetFactory
Collection
p467
(dp468
g7
(lp469
I0
aI0
aI0
aI0
aI0
aI0
aI0
aI0
aI1
aI0
aI0
aI0
aI0
aI0
aI0
aI0
aI0
aI1
aI0
aI0
aI0
aI0
aI0
aI0
aI0
aI1
asg9
(lp470
sg11
I01
sg12
I2
sg13
I144
sg14
Nsg15
I144
sba(iCollectionSetFactory
Collection
p471
(dp472
g7
(lp473
I0
aI0
aI0
aI0
aI0
aI0
aI0
aI0
aI1
aI0
aI0
aI0
aI0
aI0
aI0
aI0
aI1
aI0
aI0
aI0
aI0
aI0
aI0
aI0
aI0
aI1
asg9
(lp474
sg11
I01
sg12
I2
sg13
I144
sg14
Nsg15
I144
sba(iCollectionSetFactory
Collection
p475
(dp476
g7
(lp477
I0
aI0
aI0
aI0
aI0
aI0
aI0
aI0
aI1
aI0
aI0
aI0
aI0
aI0
aI0
aI1
aI0
aI0
aI0
aI0
aI0
aI0
aI0
aI0
aI0
aI1
asg9
(lp478
sg11
I00
sg12
I2
sg13
I144
sg14
Nsg15
I36
sba(iCollectionSetFactory
Collection
p479
(dp480
g7
(lp481
I0
aI0
aI0
aI0
aI0
aI0
aI0
aI0
aI1
aI0
aI0
aI0
aI0
aI0
aI1
aI0
aI0
aI0
aI0
aI0
aI0
aI0
aI0
aI0
aI0
aI1
asg9
(lp482
sg11
I01
sg12
I2
sg13
I144
sg14
Nsg15
I144
sba(iCollectionSetFactory
Collection
p483
(dp484
g7
(lp485
I0
aI0
aI0
aI0
aI0
aI0
aI0
aI0
aI1
aI0
aI0
aI0
aI0
aI1
aI0
aI0
aI0
aI0
aI0
aI0
aI0
aI0
aI0
aI0
aI0
aI1
asg9
(lp486
sg11
I01
sg12
I2
sg13
I144
sg14
Nsg15
I144
sba(iCollectionSetFactory
Collection
p487
(dp488
g7
(lp489
I0
aI0
aI0
aI0
aI0
aI0
aI0
aI1
aI0
aI0
aI0
aI0
aI0
aI0
aI0
aI0
aI0
aI0
aI0
aI1
aI0
aI0
aI0
aI0
aI0
aI1
asg9
(lp490
sg11
I01
sg12
I2
sg13
I144
sg14
Nsg15
I144
sba(iCollectionSetFactory
Collection
p491
(dp492
g7
(lp493
I0
aI0
aI0
aI0
aI0
aI0
aI0
aI1
aI0
aI0
aI0
aI0
aI0
aI0
aI0
aI0
aI0
aI0
aI1
aI0
aI0
aI0
aI0
aI0
aI0
aI1
asg9
(lp494
sg11
I01
sg12
I2
sg13
I144
sg14
Nsg15
I144
sba(iCollectionSetFactory
Collection
p495
(dp496
g7
(lp497
I0
aI0
aI0
aI0
aI0
aI0
aI0
aI1
aI0
aI0
aI0
aI0
aI0
aI0
aI0
aI0
aI0
aI1
aI0
aI0
aI0
aI0
aI0
aI0
aI0
aI1
asg9
(lp498
sg11
I01
sg12
I2
sg13
I144
sg14
Nsg15
I144
sba(iCollectionSetFactory
Collection
p499
(dp500
g7
(lp501
I0
aI0
aI0
aI0
aI0
aI0
aI0
aI1
aI0
aI0
aI0
aI0
aI0
aI0
aI0
aI0
aI1
aI0
aI0
aI0
aI0
aI0
aI0
aI0
aI0
aI1
asg9
(lp502
sg11
I01
sg12
I2
sg13
I144
sg14
Nsg15
I144
sba(iCollectionSetFactory
Collection
p503
(dp504
g7
(lp505
I0
aI0
aI0
aI0
aI0
aI0
aI0
aI1
aI0
aI0
aI0
aI0
aI0
aI0
aI0
aI1
aI0
aI0
aI0
aI0
aI0
aI0
aI0
aI0
aI0
aI1
asg9
(lp506
sg11
I00
sg12
I2
sg13
I144
sg14
Nsg15
I42
sba(iCollectionSetFactory
Collection
p507
(dp508
g7
(lp509
I0
aI0
aI0
aI0
aI0
aI0
aI0
aI1
aI0
aI0
aI0
aI0
aI0
aI0
aI1
aI0
aI0
aI0
aI0
aI0
aI0
aI0
aI0
aI0
aI0
aI1
asg9
(lp510
sg11
I01
sg12
I2
sg13
I144
sg14
Nsg15
I144
sba(iCollectionSetFactory
Collection
p511
(dp512
g7
(lp513
I0
aI0
aI0
aI0
aI0
aI0
aI0
aI1
aI0
aI0
aI0
aI0
aI0
aI1
aI0
aI0
aI0
aI0
aI0
aI0
aI0
aI0
aI0
aI0
aI0
aI1
asg9
(lp514
sg11
I01
sg12
I2
sg13
I144
sg14
Nsg15
I144
sba(iCollectionSetFactory
Collection
p515
(dp516
g7
(lp517
I0
aI0
aI0
aI0
aI0
aI0
aI1
aI0
aI0
aI0
aI0
aI0
aI0
aI0
aI0
aI0
aI0
aI0
aI0
aI1
aI0
aI0
aI0
aI0
aI0
aI1
asg9
(lp518
sg11
I00
sg12
I2
sg13
I144
sg14
Nsg15
I26
sba(iCollectionSetFactory
Collection
p519
(dp520
g7
(lp521
I0
aI0
aI0
aI0
aI0
aI0
aI1
aI0
aI0
aI0
aI0
aI0
aI0
aI0
aI0
aI0
aI0
aI0
aI1
aI0
aI0
aI0
aI0
aI0
aI0
aI1
asg9
(lp522
sg11
I01
sg12
I2
sg13
I144
sg14
Nsg15
I144
sba(iCollectionSetFactory
Collection
p523
(dp524
g7
(lp525
I0
aI0
aI0
aI0
aI0
aI0
aI1
aI0
aI0
aI0
aI0
aI0
aI0
aI0
aI0
aI0
aI0
aI1
aI0
aI0
aI0
aI0
aI0
aI0
aI0
aI1
asg9
(lp526
sg11
I00
sg12
I2
sg13
I144
sg14
Nsg15
I32
sba(iCollectionSetFactory
Collection
p527
(dp528
g7
(lp529
I0
aI0
aI0
aI0
aI0
aI0
aI1
aI0
aI0
aI0
aI0
aI0
aI0
aI0
aI0
aI0
aI1
aI0
aI0
aI0
aI0
aI0
aI0
aI0
aI0
aI1
asg9
(lp530
sg11
I00
sg12
I2
sg13
I144
sg14
Nsg15
I26
sba(iCollectionSetFactory
Collection
p531
(dp532
g7
(lp533
I0
aI0
aI0
aI0
aI0
aI0
aI1
aI0
aI0
aI0
aI0
aI0
aI0
aI0
aI0
aI1
aI0
aI0
aI0
aI0
aI0
aI0
aI0
aI0
aI0
aI1
asg9
(lp534
sg11
I00
sg12
I2
sg13
I144
sg14
Nsg15
I14
sba(iCollectionSetFactory
Collection
p535
(dp536
g7
(lp537
I0
aI0
aI0
aI0
aI0
aI0
aI1
aI0
aI0
aI0
aI0
aI0
aI0
aI0
aI1
aI0
aI0
aI0
aI0
aI0
aI0
aI0
aI0
aI0
aI0
aI1
asg9
(lp538
sg11
I00
sg12
I2
sg13
I144
sg14
Nsg15
I36
sba(iCollectionSetFactory
Collection
p539
(dp540
g7
(lp541
I0
aI0
aI0
aI0
aI0
aI0
aI1
aI0
aI0
aI0
aI0
aI0
aI0
aI1
aI0
aI0
aI0
aI0
aI0
aI0
aI0
aI0
aI0
aI0
aI0
aI1
asg9
(lp542
sg11
I00
sg12
I2
sg13
I144
sg14
Nsg15
I36
sba(iCollectionSetFactory
Collection
p543
(dp544
g7
(lp545
I0
aI0
aI0
aI0
aI0
aI1
aI0
aI0
aI0
aI0
aI0
aI0
aI0
aI0
aI0
aI0
aI0
aI0
aI0
aI1
aI0
aI0
aI0
aI0
aI0
aI1
asg9
(lp546
sg11
I01
sg12
I2
sg13
I144
sg14
Nsg15
I144
sba(iCollectionSetFactory
Collection
p547
(dp548
g7
(lp549
I0
aI0
aI0
aI0
aI0
aI1
aI0
aI0
aI0
aI0
aI0
aI0
aI0
aI0
aI0
aI0
aI0
aI0
aI1
aI0
aI0
aI0
aI0
aI0
aI0
aI1
asg9
(lp550
sg11
I01
sg12
I2
sg13
I144
sg14
Nsg15
I144
sba(iCollectionSetFactory
Collection
p551
(dp552
g7
(lp553
I0
aI0
aI0
aI0
aI0
aI1
aI0
aI0
aI0
aI0
aI0
aI0
aI0
aI0
aI0
aI0
aI0
aI1
aI0
aI0
aI0
aI0
aI0
aI0
aI0
aI1
asg9
(lp554
sg11
I01
sg12
I2
sg13
I144
sg14
Nsg15
I144
sba(iCollectionSetFactory
Collection
p555
(dp556
g7
(lp557
I0
aI0
aI0
aI0
aI0
aI1
aI0
aI0
aI0
aI0
aI0
aI0
aI0
aI0
aI0
aI0
aI1
aI0
aI0
aI0
aI0
aI0
aI0
aI0
aI0
aI1
asg9
(lp558
sg11
I01
sg12
I2
sg13
I144
sg14
Nsg15
I144
sba(iCollectionSetFactory
Collection
p559
(dp560
g7
(lp561
I0
aI0
aI0
aI0
aI0
aI1
aI0
aI0
aI0
aI0
aI0
aI0
aI0
aI0
aI0
aI1
aI0
aI0
aI0
aI0
aI0
aI0
aI0
aI0
aI0
aI1
asg9
(lp562
sg11
I00
sg12
I2
sg13
I144
sg14
Nsg15
I42
sba(iCollectionSetFactory
Collection
p563
(dp564
g7
(lp565
I0
aI0
aI0
aI0
aI0
aI1
aI0
aI0
aI0
aI0
aI0
aI0
aI0
aI0
aI1
aI0
aI0
aI0
aI0
aI0
aI0
aI0
aI0
aI0
aI0
aI1
asg9
(lp566
sg11
I01
sg12
I2
sg13
I144
sg14
Nsg15
I144
sba(iCollectionSetFactory
Collection
p567
(dp568
g7
(lp569
I0
aI0
aI0
aI0
aI0
aI1
aI0
aI0
aI0
aI0
aI0
aI0
aI0
aI1
aI0
aI0
aI0
aI0
aI0
aI0
aI0
aI0
aI0
aI0
aI0
aI1
asg9
(lp570
sg11
I01
sg12
I2
sg13
I144
sg14
Nsg15
I144
sba(iCollectionSetFactory
Collection
p571
(dp572
g7
(lp573
I0
aI0
aI0
aI0
aI1
aI0
aI0
aI0
aI0
aI0
aI0
aI0
aI0
aI0
aI0
aI0
aI0
aI0
aI0
aI1
aI0
aI0
aI0
aI0
aI0
aI1
asg9
(lp574
sg11
I01
sg12
I2
sg13
I144
sg14
Nsg15
I144
sba(iCollectionSetFactory
Collection
p575
(dp576
g7
(lp577
I0
aI0
aI0
aI0
aI1
aI0
aI0
aI0
aI0
aI0
aI0
aI0
aI0
aI0
aI0
aI0
aI0
aI0
aI1
aI0
aI0
aI0
aI0
aI0
aI0
aI1
asg9
(lp578
sg11
I01
sg12
I2
sg13
I144
sg14
Nsg15
I144
sba(iCollectionSetFactory
Collection
p579
(dp580
g7
(lp581
I0
aI0
aI0
aI0
aI1
aI0
aI0
aI0
aI0
aI0
aI0
aI0
aI0
aI0
aI0
aI0
aI0
aI1
aI0
aI0
aI0
aI0
aI0
aI0
aI0
aI1
asg9
(lp582
sg11
I01
sg12
I2
sg13
I144
sg14
Nsg15
I144
sba(iCollectionSetFactory
Collection
p583
(dp584
g7
(lp585
I0
aI0
aI0
aI0
aI1
aI0
aI0
aI0
aI0
aI0
aI0
aI0
aI0
aI0
aI0
aI0
aI1
aI0
aI0
aI0
aI0
aI0
aI0
aI0
aI0
aI1
asg9
(lp586
sg11
I00
sg12
I2
sg13
I144
sg14
Nsg15
I42
sba(iCollectionSetFactory
Collection
p587
(dp588
g7
(lp589
I0
aI0
aI0
aI0
aI1
aI0
aI0
aI0
aI0
aI0
aI0
aI0
aI0
aI0
aI0
aI1
aI0
aI0
aI0
aI0
aI0
aI0
aI0
aI0
aI0
aI1
asg9
(lp590
sg11
I00
sg12
I2
sg13
I144
sg14
Nsg15
I28
sba(iCollectionSetFactory
Collection
p591
(dp592
g7
(lp593
I0
aI0
aI0
aI0
aI1
aI0
aI0
aI0
aI0
aI0
aI0
aI0
aI0
aI0
aI1
aI0
aI0
aI0
aI0
aI0
aI0
aI0
aI0
aI0
aI0
aI1
asg9
(lp594
sg11
I01
sg12
I2
sg13
I144
sg14
Nsg15
I144
sba(iCollectionSetFactory
Collection
p595
(dp596
g7
(lp597
I0
aI0
aI0
aI0
aI1
aI0
aI0
aI0
aI0
aI0
aI0
aI0
aI0
aI1
aI0
aI0
aI0
aI0
aI0
aI0
aI0
aI0
aI0
aI0
aI0
aI1
asg9
(lp598
sg11
I01
sg12
I2
sg13
I144
sg14
Nsg15
I144
sba(iCollectionSetFactory
Collection
p599
(dp600
g7
(lp601
I0
aI0
aI0
aI1
aI0
aI0
aI0
aI0
aI0
aI0
aI0
aI0
aI0
aI0
aI0
aI0
aI0
aI0
aI0
aI1
aI0
aI0
aI0
aI0
aI0
aI1
asg9
(lp602
sg11
I01
sg12
I2
sg13
I144
sg14
Nsg15
I144
sba(iCollectionSetFactory
Collection
p603
(dp604
g7
(lp605
I0
aI0
aI0
aI1
aI0
aI0
aI0
aI0
aI0
aI0
aI0
aI0
aI0
aI0
aI0
aI0
aI0
aI0
aI1
aI0
aI0
aI0
aI0
aI0
aI0
aI1
asg9
(lp606
sg11
I01
sg12
I2
sg13
I144
sg14
Nsg15
I144
sba(iCollectionSetFactory
Collection
p607
(dp608
g7
(lp609
I0
aI0
aI0
aI1
aI0
aI0
aI0
aI0
aI0
aI0
aI0
aI0
aI0
aI0
aI0
aI0
aI0
aI1
aI0
aI0
aI0
aI0
aI0
aI0
aI0
aI1
asg9
(lp610
sg11
I01
sg12
I2
sg13
I144
sg14
Nsg15
I144
sba(iCollectionSetFactory
Collection
p611
(dp612
g7
(lp613
I0
aI0
aI0
aI1
aI0
aI0
aI0
aI0
aI0
aI0
aI0
aI0
aI0
aI0
aI0
aI0
aI1
aI0
aI0
aI0
aI0
aI0
aI0
aI0
aI0
aI1
asg9
(lp614
sg11
I01
sg12
I2
sg13
I144
sg14
Nsg15
I144
sba(iCollectionSetFactory
Collection
p615
(dp616
g7
(lp617
I0
aI0
aI0
aI1
aI0
aI0
aI0
aI0
aI0
aI0
aI0
aI0
aI0
aI0
aI0
aI1
aI0
aI0
aI0
aI0
aI0
aI0
aI0
aI0
aI0
aI1
asg9
(lp618
sg11
I01
sg12
I2
sg13
I144
sg14
Nsg15
I144
sba(iCollectionSetFactory
Collection
p619
(dp620
g7
(lp621
I0
aI0
aI0
aI1
aI0
aI0
aI0
aI0
aI0
aI0
aI0
aI0
aI0
aI0
aI1
aI0
aI0
aI0
aI0
aI0
aI0
aI0
aI0
aI0
aI0
aI1
asg9
(lp622
sg11
I01
sg12
I2
sg13
I144
sg14
Nsg15
I144
sba(iCollectionSetFactory
Collection
p623
(dp624
g7
(lp625
I0
aI0
aI0
aI1
aI0
aI0
aI0
aI0
aI0
aI0
aI0
aI0
aI0
aI1
aI0
aI0
aI0
aI0
aI0
aI0
aI0
aI0
aI0
aI0
aI0
aI1
asg9
(lp626
sg11
I01
sg12
I2
sg13
I144
sg14
Nsg15
I144
sba(iCollectionSetFactory
Collection
p627
(dp628
g7
(lp629
I0
aI0
aI1
aI0
aI0
aI0
aI0
aI0
aI0
aI0
aI0
aI0
aI0
aI0
aI0
aI0
aI0
aI0
aI0
aI1
aI0
aI0
aI0
aI0
aI0
aI1
asg9
(lp630
sg11
I00
sg12
I2
sg13
I144
sg14
Nsg15
I26
sba(iCollectionSetFactory
Collection
p631
(dp632
g7
(lp633
I0
aI0
aI1
aI0
aI0
aI0
aI0
aI0
aI0
aI0
aI0
aI0
aI0
aI0
aI0
aI0
aI0
aI0
aI1
aI0
aI0
aI0
aI0
aI0
aI0
aI1
asg9
(lp634
sg11
I01
sg12
I2
sg13
I144
sg14
Nsg15
I144
sba(iCollectionSetFactory
Collection
p635
(dp636
g7
(lp637
I0
aI0
aI1
aI0
aI0
aI0
aI0
aI0
aI0
aI0
aI0
aI0
aI0
aI0
aI0
aI0
aI0
aI1
aI0
aI0
aI0
aI0
aI0
aI0
aI0
aI1
asg9
(lp638
sg11
I00
sg12
I2
sg13
I144
sg14
Nsg15
I32
sba(iCollectionSetFactory
Collection
p639
(dp640
g7
(lp641
I0
aI0
aI1
aI0
aI0
aI0
aI0
aI0
aI0
aI0
aI0
aI0
aI0
aI0
aI0
aI0
aI1
aI0
aI0
aI0
aI0
aI0
aI0
aI0
aI0
aI1
asg9
(lp642
sg11
I00
sg12
I2
sg13
I144
sg14
Nsg15
I26
sba(iCollectionSetFactory
Collection
p643
(dp644
g7
(lp645
I0
aI0
aI1
aI0
aI0
aI0
aI0
aI0
aI0
aI0
aI0
aI0
aI0
aI0
aI0
aI1
aI0
aI0
aI0
aI0
aI0
aI0
aI0
aI0
aI0
aI1
asg9
(lp646
sg11
I00
sg12
I2
sg13
I144
sg14
Nsg15
I14
sba(iCollectionSetFactory
Collection
p647
(dp648
g7
(lp649
I0
aI0
aI1
aI0
aI0
aI0
aI0
aI0
aI0
aI0
aI0
aI0
aI0
aI0
aI1
aI0
aI0
aI0
aI0
aI0
aI0
aI0
aI0
aI0
aI0
aI1
asg9
(lp650
sg11
I00
sg12
I2
sg13
I144
sg14
Nsg15
I36
sba(iCollectionSetFactory
Collection
p651
(dp652
g7
(lp653
I0
aI0
aI1
aI0
aI0
aI0
aI0
aI0
aI0
aI0
aI0
aI0
aI0
aI1
aI0
aI0
aI0
aI0
aI0
aI0
aI0
aI0
aI0
aI0
aI0
aI1
asg9
(lp654
sg11
I00
sg12
I2
sg13
I144
sg14
Nsg15
I36
sba(iCollectionSetFactory
Collection
p655
(dp656
g7
(lp657
I0
aI1
aI0
aI0
aI0
aI0
aI0
aI0
aI0
aI0
aI0
aI0
aI0
aI0
aI0
aI0
aI0
aI0
aI0
aI1
aI0
aI0
aI0
aI0
aI0
aI1
asg9
(lp658
sg11
I01
sg12
I2
sg13
I144
sg14
Nsg15
I144
sba(iCollectionSetFactory
Collection
p659
(dp660
g7
(lp661
I0
aI1
aI0
aI0
aI0
aI0
aI0
aI0
aI0
aI0
aI0
aI0
aI0
aI0
aI0
aI0
aI0
aI0
aI1
aI0
aI0
aI0
aI0
aI0
aI0
aI1
asg9
(lp662
sg11
I01
sg12
I2
sg13
I144
sg14
Nsg15
I144
sba(iCollectionSetFactory
Collection
p663
(dp664
g7
(lp665
I0
aI1
aI0
aI0
aI0
aI0
aI0
aI0
aI0
aI0
aI0
aI0
aI0
aI0
aI0
aI0
aI0
aI1
aI0
aI0
aI0
aI0
aI0
aI0
aI0
aI1
asg9
(lp666
sg11
I01
sg12
I2
sg13
I144
sg14
Nsg15
I144
sba(iCollectionSetFactory
Collection
p667
(dp668
g7
(lp669
I0
aI1
aI0
aI0
aI0
aI0
aI0
aI0
aI0
aI0
aI0
aI0
aI0
aI0
aI0
aI0
aI1
aI0
aI0
aI0
aI0
aI0
aI0
aI0
aI0
aI1
asg9
(lp670
sg11
I01
sg12
I2
sg13
I144
sg14
Nsg15
I144
sba(iCollectionSetFactory
Collection
p671
(dp672
g7
(lp673
I0
aI1
aI0
aI0
aI0
aI0
aI0
aI0
aI0
aI0
aI0
aI0
aI0
aI0
aI0
aI1
aI0
aI0
aI0
aI0
aI0
aI0
aI0
aI0
aI0
aI1
asg9
(lp674
sg11
I00
sg12
I2
sg13
I144
sg14
Nsg15
I42
sba(iCollectionSetFactory
Collection
p675
(dp676
g7
(lp677
I0
aI1
aI0
aI0
aI0
aI0
aI0
aI0
aI0
aI0
aI0
aI0
aI0
aI0
aI1
aI0
aI0
aI0
aI0
aI0
aI0
aI0
aI0
aI0
aI0
aI1
asg9
(lp678
sg11
I01
sg12
I2
sg13
I144
sg14
Nsg15
I144
sba(iCollectionSetFactory
Collection
p679
(dp680
g7
(lp681
I0
aI1
aI0
aI0
aI0
aI0
aI0
aI0
aI0
aI0
aI0
aI0
aI0
aI1
aI0
aI0
aI0
aI0
aI0
aI0
aI0
aI0
aI0
aI0
aI0
aI1
asg9
(lp682
sg11
I01
sg12
I2
sg13
I144
sg14
Nsg15
I144
sba(iCollectionSetFactory
Collection
p683
(dp684
g7
(lp685
I1
aI0
aI0
aI0
aI0
aI0
aI0
aI0
aI0
aI0
aI0
aI0
aI0
aI0
aI0
aI0
aI0
aI0
aI0
aI1
aI0
aI0
aI0
aI0
aI0
aI1
asg9
(lp686
sg11
I00
sg12
I2
sg13
I144
sg14
Nsg15
I39
sba(iCollectionSetFactory
Collection
p687
(dp688
g7
(lp689
I1
aI0
aI0
aI0
aI0
aI0
aI0
aI0
aI0
aI0
aI0
aI0
aI0
aI0
aI0
aI0
aI0
aI0
aI1
aI0
aI0
aI0
aI0
aI0
aI0
aI1
asg9
(lp690
sg11
I01
sg12
I2
sg13
I144
sg14
Nsg15
I144
sba(iCollectionSetFactory
Collection
p691
(dp692
g7
(lp693
I1
aI0
aI0
aI0
aI0
aI0
aI0
aI0
aI0
aI0
aI0
aI0
aI0
aI0
aI0
aI0
aI0
aI1
aI0
aI0
aI0
aI0
aI0
aI0
aI0
aI1
asg9
(lp694
sg11
I01
sg12
I2
sg13
I144
sg14
Nsg15
I144
sba(iCollectionSetFactory
Collection
p695
(dp696
g7
(lp697
I1
aI0
aI0
aI0
aI0
aI0
aI0
aI0
aI0
aI0
aI0
aI0
aI0
aI0
aI0
aI0
aI1
aI0
aI0
aI0
aI0
aI0
aI0
aI0
aI0
aI1
asg9
(lp698
sg11
I00
sg12
I2
sg13
I144
sg14
Nsg15
I39
sba(iCollectionSetFactory
Collection
p699
(dp700
g7
(lp701
I1
aI0
aI0
aI0
aI0
aI0
aI0
aI0
aI0
aI0
aI0
aI0
aI0
aI0
aI0
aI1
aI0
aI0
aI0
aI0
aI0
aI0
aI0
aI0
aI0
aI1
asg9
(lp702
sg11
I00
sg12
I2
sg13
I144
sg14
Nsg15
I21
sba(iCollectionSetFactory
Collection
p703
(dp704
g7
(lp705
I1
aI0
aI0
aI0
aI0
aI0
aI0
aI0
aI0
aI0
aI0
aI0
aI0
aI0
aI1
aI0
aI0
aI0
aI0
aI0
aI0
aI0
aI0
aI0
aI0
aI1
asg9
(lp706
sg11
I01
sg12
I2
sg13
I144
sg14
Nsg15
I144
sba(iCollectionSetFactory
Collection
p707
(dp708
g7
(lp709
I1
aI0
aI0
aI0
aI0
aI0
aI0
aI0
aI0
aI0
aI0
aI0
aI0
aI1
aI0
aI0
aI0
aI0
aI0
aI0
aI0
aI0
aI0
aI0
aI0
aI1
asg9
(lp710
sg11
I01
sg12
I2
sg13
I144
sg14
Nsg15
I144
sba(iCollectionSetFactory
Collection
p711
(dp712
g7
(lp713
I0
aI0
aI0
aI0
aI0
aI0
aI0
aI0
aI0
aI0
aI0
aI0
aI0
aI0
aI0
aI0
aI1
aI0
aI0
aI0
aI0
aI1
aI0
aI0
aI0
aI1
asg9
(lp714
sg11
I01
sg12
I2
sg13
I135
sg14
Nsg15
I135
sba(iCollectionSetFactory
Collection
p715
(dp716
g7
(lp717
I0
aI0
aI0
aI0
aI0
aI1
aI0
aI0
aI0
aI0
aI0
aI0
aI0
aI0
aI0
aI0
aI0
aI0
aI0
aI0
aI0
aI1
aI0
aI0
aI0
aI1
asg9
(lp718
sg11
I01
sg12
I2
sg13
I115
sg14
Nsg15
I115
sba(iCollectionSetFactory
Collection
p719
(dp720
g7
(lp721
I0
aI1
aI0
aI0
aI0
aI0
aI0
aI0
aI0
aI0
aI0
aI0
aI0
aI0
aI0
aI0
aI0
aI0
aI0
aI0
aI0
aI1
aI0
aI0
aI0
aI1
asg9
(lp722
sg11
I01
sg12
I2
sg13
I115
sg14
Nsg15
I115
sba(iCollectionSetFactory
Collection
p723
(dp724
g7
(lp725
I0
aI0
aI0
aI0
aI0
aI0
aI0
aI1
aI0
aI0
aI0
aI1
aI0
aI0
aI0
aI0
aI0
aI0
aI0
aI0
aI0
aI0
aI0
aI0
aI0
aI1
asg9
(lp726
sg11
I01
sg12
I2
sg13
I108
sg14
Nsg15
I108
sba(iCollectionSetFactory
Collection
p727
(dp728
g7
(lp729
I0
aI0
aI0
aI0
aI0
aI0
aI0
aI1
aI0
aI0
aI1
aI0
aI0
aI0
aI0
aI0
aI0
aI0
aI0
aI0
aI0
aI0
aI0
aI0
aI0
aI1
asg9
(lp730
sg11
I01
sg12
I2
sg13
I108
sg14
Nsg15
I108
sba(iCollectionSetFactory
Collection
p731
(dp732
g7
(lp733
I0
aI0
aI0
aI0
aI0
aI0
aI0
aI1
aI0
aI1
aI0
aI0
aI0
aI0
aI0
aI0
aI0
aI0
aI0
aI0
aI0
aI0
aI0
aI0
aI0
aI1
asg9
(lp734
sg11
I01
sg12
I2
sg13
I108
sg14
Nsg15
I108
sba(iCollectionSetFactory
Collection
p735
(dp736
g7
(lp737
I0
aI0
aI0
aI0
aI0
aI0
aI0
aI1
aI1
aI0
aI0
aI0
aI0
aI0
aI0
aI0
aI0
aI0
aI0
aI0
aI0
aI0
aI0
aI0
aI0
aI1
asg9
(lp738
sg11
I01
sg12
I2
sg13
I108
sg14
Nsg15
I108
sba(iCollectionSetFactory
Collection
p739
(dp740
g7
(lp741
I0
aI0
aI0
aI0
aI0
aI0
aI1
aI0
aI0
aI0
aI0
aI1
aI0
aI0
aI0
aI0
aI0
aI0
aI0
aI0
aI0
aI0
aI0
aI0
aI0
aI1
asg9
(lp742
sg11
I01
sg12
I2
sg13
I108
sg14
Nsg15
I108
sba(iCollectionSetFactory
Collection
p743
(dp744
g7
(lp745
I0
aI0
aI0
aI0
aI0
aI0
aI1
aI0
aI0
aI0
aI1
aI0
aI0
aI0
aI0
aI0
aI0
aI0
aI0
aI0
aI0
aI0
aI0
aI0
aI0
aI1
asg9
(lp746
sg11
I01
sg12
I2
sg13
I108
sg14
Nsg15
I108
sba(iCollectionSetFactory
Collection
p747
(dp748
g7
(lp749
I0
aI0
aI0
aI0
aI0
aI0
aI1
aI0
aI0
aI1
aI0
aI0
aI0
aI0
aI0
aI0
aI0
aI0
aI0
aI0
aI0
aI0
aI0
aI0
aI0
aI1
asg9
(lp750
sg11
I01
sg12
I2
sg13
I108
sg14
Nsg15
I108
sba(iCollectionSetFactory
Collection
p751
(dp752
g7
(lp753
I0
aI0
aI0
aI0
aI0
aI0
aI1
aI0
aI1
aI0
aI0
aI0
aI0
aI0
aI0
aI0
aI0
aI0
aI0
aI0
aI0
aI0
aI0
aI0
aI0
aI1
asg9
(lp754
sg11
I01
sg12
I2
sg13
I108
sg14
Nsg15
I108
sba(iCollectionSetFactory
Collection
p755
(dp756
g7
(lp757
I0
aI0
aI0
aI0
aI0
aI1
aI0
aI0
aI0
aI0
aI0
aI1
aI0
aI0
aI0
aI0
aI0
aI0
aI0
aI0
aI0
aI0
aI0
aI0
aI0
aI1
asg9
(lp758
sg11
I01
sg12
I2
sg13
I108
sg14
Nsg15
I108
sba(iCollectionSetFactory
Collection
p759
(dp760
g7
(lp761
I0
aI0
aI0
aI0
aI0
aI1
aI0
aI0
aI0
aI0
aI1
aI0
aI0
aI0
aI0
aI0
aI0
aI0
aI0
aI0
aI0
aI0
aI0
aI0
aI0
aI1
asg9
(lp762
sg11
I01
sg12
I2
sg13
I108
sg14
Nsg15
I108
sba(iCollectionSetFactory
Collection
p763
(dp764
g7
(lp765
I0
aI0
aI0
aI0
aI0
aI1
aI0
aI0
aI0
aI1
aI0
aI0
aI0
aI0
aI0
aI0
aI0
aI0
aI0
aI0
aI0
aI0
aI0
aI0
aI0
aI1
asg9
(lp766
sg11
I01
sg12
I2
sg13
I108
sg14
Nsg15
I108
sba(iCollectionSetFactory
Collection
p767
(dp768
g7
(lp769
I0
aI0
aI0
aI0
aI0
aI1
aI0
aI0
aI1
aI0
aI0
aI0
aI0
aI0
aI0
aI0
aI0
aI0
aI0
aI0
aI0
aI0
aI0
aI0
aI0
aI1
asg9
(lp770
sg11
I01
sg12
I2
sg13
I108
sg14
Nsg15
I108
sba(iCollectionSetFactory
Collection
p771
(dp772
g7
(lp773
I0
aI0
aI0
aI0
aI1
aI0
aI0
aI0
aI0
aI0
aI0
aI1
aI0
aI0
aI0
aI0
aI0
aI0
aI0
aI0
aI0
aI0
aI0
aI0
aI0
aI1
asg9
(lp774
sg11
I01
sg12
I2
sg13
I108
sg14
Nsg15
I108
sba(iCollectionSetFactory
Collection
p775
(dp776
g7
(lp777
I0
aI0
aI0
aI0
aI1
aI0
aI0
aI0
aI0
aI0
aI1
aI0
aI0
aI0
aI0
aI0
aI0
aI0
aI0
aI0
aI0
aI0
aI0
aI0
aI0
aI1
asg9
(lp778
sg11
I01
sg12
I2
sg13
I108
sg14
Nsg15
I108
sba(iCollectionSetFactory
Collection
p779
(dp780
g7
(lp781
I0
aI0
aI0
aI0
aI1
aI0
aI0
aI0
aI0
aI1
aI0
aI0
aI0
aI0
aI0
aI0
aI0
aI0
aI0
aI0
aI0
aI0
aI0
aI0
aI0
aI1
asg9
(lp782
sg11
I01
sg12
I2
sg13
I108
sg14
Nsg15
I108
sba(iCollectionSetFactory
Collection
p783
(dp784
g7
(lp785
I0
aI0
aI0
aI0
aI1
aI0
aI0
aI0
aI1
aI0
aI0
aI0
aI0
aI0
aI0
aI0
aI0
aI0
aI0
aI0
aI0
aI0
aI0
aI0
aI0
aI1
asg9
(lp786
sg11
I01
sg12
I2
sg13
I108
sg14
Nsg15
I108
sba(iCollectionSetFactory
Collection
p787
(dp788
g7
(lp789
I0
aI0
aI0
aI1
aI0
aI0
aI0
aI0
aI0
aI0
aI0
aI1
aI0
aI0
aI0
aI0
aI0
aI0
aI0
aI0
aI0
aI0
aI0
aI0
aI0
aI1
asg9
(lp790
sg11
I01
sg12
I2
sg13
I108
sg14
Nsg15
I108
sba(iCollectionSetFactory
Collection
p791
(dp792
g7
(lp793
I0
aI0
aI0
aI1
aI0
aI0
aI0
aI0
aI0
aI0
aI1
aI0
aI0
aI0
aI0
aI0
aI0
aI0
aI0
aI0
aI0
aI0
aI0
aI0
aI0
aI1
asg9
(lp794
sg11
I01
sg12
I2
sg13
I108
sg14
Nsg15
I108
sba(iCollectionSetFactory
Collection
p795
(dp796
g7
(lp797
I0
aI0
aI0
aI1
aI0
aI0
aI0
aI0
aI0
aI1
aI0
aI0
aI0
aI0
aI0
aI0
aI0
aI0
aI0
aI0
aI0
aI0
aI0
aI0
aI0
aI1
asg9
(lp798
sg11
I01
sg12
I2
sg13
I108
sg14
Nsg15
I108
sba(iCollectionSetFactory
Collection
p799
(dp800
g7
(lp801
I0
aI0
aI0
aI1
aI0
aI0
aI0
aI0
aI1
aI0
aI0
aI0
aI0
aI0
aI0
aI0
aI0
aI0
aI0
aI0
aI0
aI0
aI0
aI0
aI0
aI1
asg9
(lp802
sg11
I01
sg12
I2
sg13
I108
sg14
Nsg15
I108
sba(iCollectionSetFactory
Collection
p803
(dp804
g7
(lp805
I0
aI0
aI0
aI1
aI0
aI0
aI0
aI1
aI0
aI0
aI0
aI0
aI0
aI0
aI0
aI0
aI0
aI0
aI0
aI0
aI0
aI0
aI0
aI0
aI0
aI1
asg9
(lp806
sg11
I01
sg12
I2
sg13
I108
sg14
Nsg15
I108
sba(iCollectionSetFactory
Collection
p807
(dp808
g7
(lp809
I0
aI0
aI0
aI1
aI0
aI0
aI1
aI0
aI0
aI0
aI0
aI0
aI0
aI0
aI0
aI0
aI0
aI0
aI0
aI0
aI0
aI0
aI0
aI0
aI0
aI1
asg9
(lp810
sg11
I01
sg12
I2
sg13
I108
sg14
Nsg15
I108
sba(iCollectionSetFactory
Collection
p811
(dp812
g7
(lp813
I0
aI0
aI0
aI1
aI0
aI1
aI0
aI0
aI0
aI0
aI0
aI0
aI0
aI0
aI0
aI0
aI0
aI0
aI0
aI0
aI0
aI0
aI0
aI0
aI0
aI1
asg9
(lp814
sg11
I01
sg12
I2
sg13
I108
sg14
Nsg15
I108
sba(iCollectionSetFactory
Collection
p815
(dp816
g7
(lp817
I0
aI0
aI0
aI1
aI1
aI0
aI0
aI0
aI0
aI0
aI0
aI0
aI0
aI0
aI0
aI0
aI0
aI0
aI0
aI0
aI0
aI0
aI0
aI0
aI0
aI1
asg9
(lp818
sg11
I01
sg12
I2
sg13
I108
sg14
Nsg15
I108
sba(iCollectionSetFactory
Collection
p819
(dp820
g7
(lp821
I0
aI0
aI1
aI0
aI0
aI0
aI0
aI0
aI0
aI0
aI0
aI1
aI0
aI0
aI0
aI0
aI0
aI0
aI0
aI0
aI0
aI0
aI0
aI0
aI0
aI1
asg9
(lp822
sg11
I01
sg12
I2
sg13
I108
sg14
Nsg15
I108
sba(iCollectionSetFactory
Collection
p823
(dp824
g7
(lp825
I0
aI0
aI1
aI0
aI0
aI0
aI0
aI0
aI0
aI0
aI1
aI0
aI0
aI0
aI0
aI0
aI0
aI0
aI0
aI0
aI0
aI0
aI0
aI0
aI0
aI1
asg9
(lp826
sg11
I01
sg12
I2
sg13
I108
sg14
Nsg15
I108
sba(iCollectionSetFactory
Collection
p827
(dp828
g7
(lp829
I0
aI0
aI1
aI0
aI0
aI0
aI0
aI0
aI0
aI1
aI0
aI0
aI0
aI0
aI0
aI0
aI0
aI0
aI0
aI0
aI0
aI0
aI0
aI0
aI0
aI1
asg9
(lp830
sg11
I01
sg12
I2
sg13
I108
sg14
Nsg15
I108
sba(iCollectionSetFactory
Collection
p831
(dp832
g7
(lp833
I0
aI0
aI1
aI0
aI0
aI0
aI0
aI0
aI1
aI0
aI0
aI0
aI0
aI0
aI0
aI0
aI0
aI0
aI0
aI0
aI0
aI0
aI0
aI0
aI0
aI1
asg9
(lp834
sg11
I01
sg12
I2
sg13
I108
sg14
Nsg15
I108
sba(iCollectionSetFactory
Collection
p835
(dp836
g7
(lp837
I0
aI0
aI1
aI0
aI0
aI0
aI0
aI1
aI0
aI0
aI0
aI0
aI0
aI0
aI0
aI0
aI0
aI0
aI0
aI0
aI0
aI0
aI0
aI0
aI0
aI1
asg9
(lp838
sg11
I01
sg12
I2
sg13
I108
sg14
Nsg15
I108
sba(iCollectionSetFactory
Collection
p839
(dp840
g7
(lp841
I0
aI0
aI1
aI0
aI0
aI1
aI0
aI0
aI0
aI0
aI0
aI0
aI0
aI0
aI0
aI0
aI0
aI0
aI0
aI0
aI0
aI0
aI0
aI0
aI0
aI1
asg9
(lp842
sg11
I01
sg12
I2
sg13
I108
sg14
Nsg15
I108
sba(iCollectionSetFactory
Collection
p843
(dp844
g7
(lp845
I0
aI1
aI0
aI0
aI0
aI0
aI0
aI0
aI0
aI0
aI0
aI1
aI0
aI0
aI0
aI0
aI0
aI0
aI0
aI0
aI0
aI0
aI0
aI0
aI0
aI1
asg9
(lp846
sg11
I01
sg12
I2
sg13
I108
sg14
Nsg15
I108
sba(iCollectionSetFactory
Collection
p847
(dp848
g7
(lp849
I0
aI1
aI0
aI0
aI0
aI0
aI0
aI0
aI0
aI0
aI1
aI0
aI0
aI0
aI0
aI0
aI0
aI0
aI0
aI0
aI0
aI0
aI0
aI0
aI0
aI1
asg9
(lp850
sg11
I01
sg12
I2
sg13
I108
sg14
Nsg15
I108
sba(iCollectionSetFactory
Collection
p851
(dp852
g7
(lp853
I0
aI1
aI0
aI0
aI0
aI0
aI0
aI0
aI0
aI1
aI0
aI0
aI0
aI0
aI0
aI0
aI0
aI0
aI0
aI0
aI0
aI0
aI0
aI0
aI0
aI1
asg9
(lp854
sg11
I01
sg12
I2
sg13
I108
sg14
Nsg15
I108
sba(iCollectionSetFactory
Collection
p855
(dp856
g7
(lp857
I0
aI1
aI0
aI0
aI0
aI0
aI0
aI0
aI1
aI0
aI0
aI0
aI0
aI0
aI0
aI0
aI0
aI0
aI0
aI0
aI0
aI0
aI0
aI0
aI0
aI1
asg9
(lp858
sg11
I01
sg12
I2
sg13
I108
sg14
Nsg15
I108
sba(iCollectionSetFactory
Collection
p859
(dp860
g7
(lp861
I0
aI1
aI0
aI0
aI0
aI0
aI0
aI1
aI0
aI0
aI0
aI0
aI0
aI0
aI0
aI0
aI0
aI0
aI0
aI0
aI0
aI0
aI0
aI0
aI0
aI1
asg9
(lp862
sg11
I01
sg12
I2
sg13
I108
sg14
Nsg15
I108
sba(iCollectionSetFactory
Collection
p863
(dp864
g7
(lp865
I0
aI1
aI0
aI0
aI0
aI0
aI1
aI0
aI0
aI0
aI0
aI0
aI0
aI0
aI0
aI0
aI0
aI0
aI0
aI0
aI0
aI0
aI0
aI0
aI0
aI1
asg9
(lp866
sg11
I01
sg12
I2
sg13
I108
sg14
Nsg15
I108
sba(iCollectionSetFactory
Collection
p867
(dp868
g7
(lp869
I0
aI1
aI0
aI0
aI0
aI1
aI0
aI0
aI0
aI0
aI0
aI0
aI0
aI0
aI0
aI0
aI0
aI0
aI0
aI0
aI0
aI0
aI0
aI0
aI0
aI1
asg9
(lp870
sg11
I01
sg12
I2
sg13
I108
sg14
Nsg15
I108
sba(iCollectionSetFactory
Collection
p871
(dp872
g7
(lp873
I0
aI1
aI0
aI0
aI1
aI0
aI0
aI0
aI0
aI0
aI0
aI0
aI0
aI0
aI0
aI0
aI0
aI0
aI0
aI0
aI0
aI0
aI0
aI0
aI0
aI1
asg9
(lp874
sg11
I01
sg12
I2
sg13
I108
sg14
Nsg15
I108
sba(iCollectionSetFactory
Collection
p875
(dp876
g7
(lp877
I1
aI0
aI0
aI0
aI0
aI0
aI0
aI0
aI0
aI0
aI0
aI0
aI0
aI0
aI0
aI0
aI0
aI0
aI0
aI0
aI0
aI1
aI0
aI0
aI0
aI1
asg9
(lp878
sg11
I01
sg12
I2
sg13
I108
sg14
Nsg15
I108
sba(iCollectionSetFactory
Collection
p879
(dp880
g7
(lp881
I1
aI0
aI0
aI0
aI0
aI0
aI0
aI0
aI0
aI0
aI0
aI1
aI0
aI0
aI0
aI0
aI0
aI0
aI0
aI0
aI0
aI0
aI0
aI0
aI0
aI1
asg9
(lp882
sg11
I01
sg12
I2
sg13
I108
sg14
Nsg15
I108
sba(iCollectionSetFactory
Collection
p883
(dp884
g7
(lp885
I1
aI0
aI0
aI0
aI0
aI0
aI0
aI0
aI0
aI0
aI1
aI0
aI0
aI0
aI0
aI0
aI0
aI0
aI0
aI0
aI0
aI0
aI0
aI0
aI0
aI1
asg9
(lp886
sg11
I01
sg12
I2
sg13
I108
sg14
Nsg15
I108
sba(iCollectionSetFactory
Collection
p887
(dp888
g7
(lp889
I1
aI0
aI0
aI0
aI0
aI0
aI0
aI0
aI0
aI1
aI0
aI0
aI0
aI0
aI0
aI0
aI0
aI0
aI0
aI0
aI0
aI0
aI0
aI0
aI0
aI1
asg9
(lp890
sg11
I01
sg12
I2
sg13
I108
sg14
Nsg15
I108
sba(iCollectionSetFactory
Collection
p891
(dp892
g7
(lp893
I1
aI0
aI0
aI0
aI0
aI0
aI0
aI0
aI1
aI0
aI0
aI0
aI0
aI0
aI0
aI0
aI0
aI0
aI0
aI0
aI0
aI0
aI0
aI0
aI0
aI1
asg9
(lp894
sg11
I01
sg12
I2
sg13
I108
sg14
Nsg15
I108
sba(iCollectionSetFactory
Collection
p895
(dp896
g7
(lp897
I1
aI0
aI0
aI0
aI0
aI0
aI0
aI1
aI0
aI0
aI0
aI0
aI0
aI0
aI0
aI0
aI0
aI0
aI0
aI0
aI0
aI0
aI0
aI0
aI0
aI1
asg9
(lp898
sg11
I01
sg12
I2
sg13
I108
sg14
Nsg15
I108
sba(iCollectionSetFactory
Collection
p899
(dp900
g7
(lp901
I1
aI0
aI0
aI0
aI0
aI1
aI0
aI0
aI0
aI0
aI0
aI0
aI0
aI0
aI0
aI0
aI0
aI0
aI0
aI0
aI0
aI0
aI0
aI0
aI0
aI1
asg9
(lp902
sg11
I01
sg12
I2
sg13
I108
sg14
Nsg15
I108
sba(iCollectionSetFactory
Collection
p903
(dp904
g7
(lp905
I1
aI0
aI0
aI0
aI1
aI0
aI0
aI0
aI0
aI0
aI0
aI0
aI0
aI0
aI0
aI0
aI0
aI0
aI0
aI0
aI0
aI0
aI0
aI0
aI0
aI1
asg9
(lp906
sg11
I01
sg12
I2
sg13
I108
sg14
Nsg15
I108
sba(iCollectionSetFactory
Collection
p907
(dp908
g7
(lp909
I0
aI0
aI0
aI0
aI0
aI0
aI0
aI0
aI0
aI0
aI0
aI0
aI0
aI0
aI0
aI1
aI0
aI0
aI0
aI0
aI0
aI1
aI0
aI0
aI0
aI1
asg9
(lp910
sg11
I01
sg12
I2
sg13
I105
sg14
Nsg15
I105
sba(iCollectionSetFactory
Collection
p911
(dp912
g7
(lp913
I0
aI0
aI0
aI0
aI1
aI0
aI0
aI0
aI0
aI0
aI0
aI0
aI0
aI0
aI0
aI0
aI0
aI0
aI0
aI0
aI0
aI1
aI0
aI0
aI0
aI1
asg9
(lp914
sg11
I01
sg12
I2
sg13
I105
sg14
Nsg15
I105
sba(iCollectionSetFactory
Collection
p915
(dp916
g7
(lp917
I0
aI0
aI0
aI0
aI0
aI0
aI0
aI0
aI0
aI0
aI0
aI1
aI0
aI0
aI0
aI0
aI0
aI0
aI0
aI0
aI0
aI1
aI0
aI0
aI0
aI1
asg9
(lp918
sg11
I01
sg12
I2
sg13
I102
sg14
Nsg15
I102
sba(iCollectionSetFactory
Collection
p919
(dp920
g7
(lp921
I0
aI0
aI0
aI0
aI0
aI0
aI0
aI0
aI1
aI0
aI0
aI0
aI0
aI0
aI0
aI0
aI0
aI0
aI0
aI0
aI0
aI1
aI0
aI0
aI0
aI1
asg9
(lp922
sg11
I01
sg12
I2
sg13
I102
sg14
Nsg15
I102
sbaa(lp923
(iCollectionSetFactory
Collection
p924
(dp925
g7
(lp926
I0
aI0
aI0
aI0
aI0
aI0
aI0
aI0
aI0
aI0
aI0
aI0
aI0
aI0
aI0
aI0
aI0
aI1
aI0
aI0
aI1
aI0
aI1
aI0
aI0
aI1
asg9
(lp927
(iCollectionSetFactory
CollectionLink
p928
(dp929
g115
Nsg116
g203
sg117
g118
sg119
Nsba(iCollectionSetFactory
CollectionLink
p930
(dp931
g115
Nsg116
g32
sg117
g118
sg119
Nsbasg11
I01
sg12
I0
sg13
I192
sg14
F1152.0
sg15
I192
sba(iCollectionSetFactory
Collection
p932
(dp933
g7
(lp934
I0
aI0
aI0
aI0
aI0
aI0
aI0
aI0
aI0
aI0
aI0
aI0
aI0
aI0
aI0
aI0
aI1
aI0
aI0
aI0
aI1
aI0
aI1
aI0
aI0
aI1
asg9
(lp935
sg11
I01
sg12
I2
sg13
I192
sg14
Nsg15
I192
sba(iCollectionSetFactory
Collection
p936
(dp937
g7
(lp938
I0
aI0
aI0
aI0
aI0
aI0
aI0
aI0
aI0
aI0
aI0
aI0
aI0
aI0
aI0
aI1
aI0
aI0
aI0
aI0
aI1
aI0
aI1
aI0
aI0
aI1
asg9
(lp939
sg11
I01
sg12
I2
sg13
I192
sg14
Nsg15
I192
sba(iCollectionSetFactory
Collection
p940
(dp941
g7
(lp942
I0
aI0
aI0
aI0
aI0
aI0
aI0
aI0
aI0
aI0
aI0
aI0
aI0
aI0
aI1
aI0
aI0
aI0
aI0
aI0
aI1
aI0
aI1
aI0
aI0
aI1
asg9
(lp943
sg11
I01
sg12
I2
sg13
I192
sg14
Nsg15
I192
sba(iCollectionSetFactory
Collection
p944
(dp945
g7
(lp946
I0
aI0
aI0
aI0
aI0
aI0
aI0
aI0
aI0
aI0
aI0
aI0
aI0
aI1
aI0
aI0
aI0
aI0
aI0
aI0
aI1
aI0
aI1
aI0
aI0
aI1
asg9
(lp947
sg11
I01
sg12
I2
sg13
I192
sg14
Nsg15
I192
sba(iCollectionSetFactory
Collection
p948
(dp949
g7
(lp950
I0
aI0
aI0
aI0
aI0
aI0
aI0
aI0
aI0
aI0
aI0
aI0
aI1
aI0
aI0
aI0
aI0
aI0
aI0
aI0
aI1
aI0
aI1
aI0
aI0
aI1
asg9
(lp951
sg11
I01
sg12
I2
sg13
I192
sg14
Nsg15
I192
sba(iCollectionSetFactory
Collection
p952
(dp953
g7
(lp954
I0
aI0
aI0
aI0
aI0
aI0
aI0
aI0
aI0
aI0
aI0
aI0
aI1
aI0
aI0
aI0
aI0
aI0
aI0
aI1
aI0
aI0
aI1
aI0
aI0
aI1
asg9
(lp955
sg11
I01
sg12
I2
sg13
I192
sg14
Nsg15
I192
sba(iCollectionSetFactory
Collection
p956
(dp957
g7
(lp958
I0
aI0
aI0
aI0
aI0
aI0
aI0
aI0
aI0
aI0
aI0
aI0
aI1
aI0
aI0
aI0
aI0
aI0
aI1
aI0
aI0
aI0
aI1
aI0
aI0
aI1
asg9
(lp959
sg11
I01
sg12
I2
sg13
I192
sg14
Nsg15
I192
sba(iCollectionSetFactory
Collection
p960
(dp961
g7
(lp962
I0
aI0
aI0
aI0
aI0
aI0
aI0
aI0
aI0
aI0
aI0
aI0
aI1
aI0
aI0
aI0
aI0
aI1
aI0
aI0
aI0
aI0
aI1
aI0
aI0
aI1
asg9
(lp963
sg11
I01
sg12
I2
sg13
I192
sg14
Nsg15
I192
sba(iCollectionSetFactory
Collection
p964
(dp965
g7
(lp966
I0
aI0
aI0
aI0
aI0
aI0
aI0
aI0
aI0
aI0
aI0
aI0
aI1
aI0
aI0
aI0
aI1
aI0
aI0
aI0
aI0
aI0
aI1
aI0
aI0
aI1
asg9
(lp967
sg11
I01
sg12
I2
sg13
I192
sg14
Nsg15
I192
sba(iCollectionSetFactory
Collection
p968
(dp969
g7
(lp970
I0
aI0
aI0
aI0
aI0
aI0
aI0
aI0
aI0
aI0
aI0
aI0
aI1
aI0
aI0
aI1
aI0
aI0
aI0
aI0
aI0
aI0
aI1
aI0
aI0
aI1
asg9
(lp971
sg11
I01
sg12
I2
sg13
I192
sg14
Nsg15
I192
sba(iCollectionSetFactory
Collection
p972
(dp973
g7
(lp974
I0
aI0
aI0
aI0
aI0
aI0
aI0
aI0
aI0
aI0
aI0
aI0
aI0
aI0
aI0
aI1
aI0
aI0
aI0
aI1
aI0
aI0
aI1
aI0
aI0
aI1
asg9
(lp975
sg11
I01
sg12
I2
sg13
I157
sg14
Nsg15
I157
sba(iCollectionSetFactory
Collection
p976
(dp977
g7
(lp978
I0
aI0
aI0
aI0
aI0
aI0
aI0
aI0
aI0
aI0
aI0
aI1
aI0
aI0
aI0
aI0
aI0
aI0
aI0
aI0
aI1
aI0
aI1
aI0
aI0
aI1
asg9
(lp979
sg11
I01
sg12
I2
sg13
I144
sg14
Nsg15
I144
sba(iCollectionSetFactory
Collection
p980
(dp981
g7
(lp982
I0
aI0
aI0
aI0
aI0
aI0
aI0
aI0
aI0
aI0
aI0
aI1
aI1
aI0
aI0
aI0
aI0
aI0
aI0
aI0
aI0
aI0
aI1
aI0
aI0
aI1
asg9
(lp983
sg11
I01
sg12
I2
sg13
I144
sg14
Nsg15
I144
sba(iCollectionSetFactory
Collection
p984
(dp985
g7
(lp986
I0
aI0
aI0
aI0
aI0
aI0
aI0
aI0
aI0
aI0
aI1
aI0
aI0
aI0
aI0
aI0
aI0
aI0
aI0
aI0
aI1
aI0
aI1
aI0
aI0
aI1
asg9
(lp987
sg11
I01
sg12
I2
sg13
I144
sg14
Nsg15
I144
sba(iCollectionSetFactory
Collection
p988
(dp989
g7
(lp990
I0
aI0
aI0
aI0
aI0
aI0
aI0
aI0
aI0
aI0
aI1
aI0
aI1
aI0
aI0
aI0
aI0
aI0
aI0
aI0
aI0
aI0
aI1
aI0
aI0
aI1
asg9
(lp991
sg11
I01
sg12
I2
sg13
I144
sg14
Nsg15
I144
sba(iCollectionSetFactory
Collection
p992
(dp993
g7
(lp994
I0
aI0
aI0
aI0
aI0
aI0
aI0
aI0
aI0
aI1
aI0
aI0
aI0
aI0
aI0
aI0
aI0
aI0
aI0
aI0
aI1
aI0
aI1
aI0
aI0
aI1
asg9
(lp995
sg11
I01
sg12
I2
sg13
I144
sg14
Nsg15
I144
sba(iCollectionSetFactory
Collection
p996
(dp997
g7
(lp998
I0
aI0
aI0
aI0
aI0
aI0
aI0
aI0
aI0
aI1
aI0
aI0
aI1
aI0
aI0
aI0
aI0
aI0
aI0
aI0
aI0
aI0
aI1
aI0
aI0
aI1
asg9
(lp999
sg11
I01
sg12
I2
sg13
I144
sg14
Nsg15
I144
sba(iCollectionSetFactory
Collection
p1000
(dp1001
g7
(lp1002
I0
aI0
aI0
aI0
aI0
aI0
aI0
aI0
aI1
aI0
aI0
aI0
aI0
aI0
aI0
aI0
aI0
aI0
aI0
aI0
aI1
aI0
aI1
aI0
aI0
aI1
asg9
(lp1003
sg11
I01
sg12
I2
sg13
I144
sg14
Nsg15
I144
sba(iCollectionSetFactory
Collection
p1004
(dp1005
g7
(lp1006
I0
aI0
aI0
aI0
aI0
aI0
aI0
aI0
aI1
aI0
aI0
aI0
aI1
aI0
aI0
aI0
aI0
aI0
aI0
aI0
aI0
aI0
aI1
aI0
aI0
aI1
asg9
(lp1007
sg11
I01
sg12
I2
sg13
I144
sg14
Nsg15
I144
sba(iCollectionSetFactory
Collection
p1008
(dp1009
g7
(lp1010
I0
aI0
aI0
aI0
aI0
aI0
aI0
aI1
aI0
aI0
aI0
aI0
aI0
aI0
aI0
aI0
aI0
aI0
aI0
aI0
aI1
aI0
aI1
aI0
aI0
aI1
asg9
(lp1011
sg11
I01
sg12
I2
sg13
I144
sg14
Nsg15
I144
sba(iCollectionSetFactory
Collection
p1012
(dp1013
g7
(lp1014
I0
aI0
aI0
aI0
aI0
aI0
aI0
aI1
aI0
aI0
aI0
aI0
aI1
aI0
aI0
aI0
aI0
aI0
aI0
aI0
aI0
aI0
aI1
aI0
aI0
aI1
asg9
(lp1015
sg11
I01
sg12
I2
sg13
I144
sg14
Nsg15
I144
sba(iCollectionSetFactory
Collection
p1016
(dp1017
g7
(lp1018
I0
aI0
aI0
aI0
aI0
aI0
aI1
aI0
aI0
aI0
aI0
aI0
aI0
aI0
aI0
aI0
aI0
aI0
aI0
aI0
aI1
aI0
aI1
aI0
aI0
aI1
asg9
(lp1019
sg11
I01
sg12
I2
sg13
I144
sg14
Nsg15
I144
sba(iCollectionSetFactory
Collection
p1020
(dp1021
g7
(lp1022
I0
aI0
aI0
aI0
aI0
aI0
aI1
aI0
aI0
aI0
aI0
aI0
aI1
aI0
aI0
aI0
aI0
aI0
aI0
aI0
aI0
aI0
aI1
aI0
aI0
aI1
asg9
(lp1023
sg11
I01
sg12
I2
sg13
I144
sg14
Nsg15
I144
sba(iCollectionSetFactory
Collection
p1024
(dp1025
g7
(lp1026
I0
aI0
aI0
aI0
aI0
aI1
aI0
aI0
aI0
aI0
aI0
aI0
aI0
aI0
aI0
aI0
aI0
aI0
aI0
aI0
aI1
aI0
aI1
aI0
aI0
aI1
asg9
(lp1027
sg11
I01
sg12
I2
sg13
I144
sg14
Nsg15
I144
sba(iCollectionSetFactory
Collection
p1028
(dp1029
g7
(lp1030
I0
aI0
aI0
aI0
aI0
aI1
aI0
aI0
aI0
aI0
aI0
aI0
aI1
aI0
aI0
aI0
aI0
aI0
aI0
aI0
aI0
aI0
aI1
aI0
aI0
aI1
asg9
(lp1031
sg11
I01
sg12
I2
sg13
I144
sg14
Nsg15
I144
sba(iCollectionSetFactory
Collection
p1032
(dp1033
g7
(lp1034
I0
aI0
aI0
aI0
aI1
aI0
aI0
aI0
aI0
aI0
aI0
aI0
aI0
aI0
aI0
aI0
aI0
aI0
aI0
aI0
aI1
aI0
aI1
aI0
aI0
aI1
asg9
(lp1035
sg11
I01
sg12
I2
sg13
I144
sg14
Nsg15
I144
sba(iCollectionSetFactory
Collection
p1036
(dp1037
g7
(lp1038
I0
aI0
aI0
aI0
aI1
aI0
aI0
aI0
aI0
aI0
aI0
aI0
aI1
aI0
aI0
aI0
aI0
aI0
aI0
aI0
aI0
aI0
aI1
aI0
aI0
aI1
asg9
(lp1039
sg11
I01
sg12
I2
sg13
I144
sg14
Nsg15
I144
sba(iCollectionSetFactory
Collection
p1040
(dp1041
g7
(lp1042
I0
aI0
aI0
aI1
aI0
aI0
aI0
aI0
aI0
aI0
aI0
aI0
aI0
aI0
aI0
aI0
aI0
aI0
aI0
aI0
aI1
aI0
aI1
aI0
aI0
aI1
asg9
(lp1043
sg11
I01
sg12
I2
sg13
I144
sg14
Nsg15
I144
sba(iCollectionSetFactory
Collection
p1044
(dp1045
g7
(lp1046
I0
aI0
aI0
aI1
aI0
aI0
aI0
aI0
aI0
aI0
aI0
aI0
aI1
aI0
aI0
aI0
aI0
aI0
aI0
aI0
aI0
aI0
aI1
aI0
aI0
aI1
asg9
(lp1047
sg11
I01
sg12
I2
sg13
I144
sg14
Nsg15
I144
sba(iCollectionSetFactory
Collection
p1048
(dp1049
g7
(lp1050
I0
aI0
aI1
aI0
aI0
aI0
aI0
aI0
aI0
aI0
aI0
aI0
aI0
aI0
aI0
aI0
aI0
aI0
aI0
aI0
aI1
aI0
aI1
aI0
aI0
aI1
asg9
(lp1051
sg11
I01
sg12
I2
sg13
I144
sg14
Nsg15
I144
sba(iCollectionSetFactory
Collection
p1052
(dp1053
g7
(lp1054
I0
aI0
aI1
aI0
aI0
aI0
aI0
aI0
aI0
aI0
aI0
aI0
aI1
aI0
aI0
aI0
aI0
aI0
aI0
aI0
aI0
aI0
aI1
aI0
aI0
aI1
asg9
(lp1055
sg11
I01
sg12
I2
sg13
I144
sg14
Nsg15
I144
sba(iCollectionSetFactory
Collection
p1056
(dp1057
g7
(lp1058
I0
aI1
aI0
aI0
aI0
aI0
aI0
aI0
aI0
aI0
aI0
aI0
aI0
aI0
aI0
aI0
aI0
aI0
aI0
aI0
aI1
aI0
aI1
aI0
aI0
aI1
asg9
(lp1059
sg11
I01
sg12
I2
sg13
I144
sg14
Nsg15
I144
sba(iCollectionSetFactory
Collection
p1060
(dp1061
g7
(lp1062
I0
aI1
aI0
aI0
aI0
aI0
aI0
aI0
aI0
aI0
aI0
aI0
aI1
aI0
aI0
aI0
aI0
aI0
aI0
aI0
aI0
aI0
aI1
aI0
aI0
aI1
asg9
(lp1063
sg11
I01
sg12
I2
sg13
I144
sg14
Nsg15
I144
sba(iCollectionSetFactory
Collection
p1064
(dp1065
g7
(lp1066
I1
aI0
aI0
aI0
aI0
aI0
aI0
aI0
aI0
aI0
aI0
aI0
aI0
aI0
aI0
aI0
aI0
aI0
aI0
aI0
aI1
aI0
aI1
aI0
aI0
aI1
asg9
(lp1067
sg11
I01
sg12
I2
sg13
I144
sg14
Nsg15
I144
sba(iCollectionSetFactory
Collection
p1068
(dp1069
g7
(lp1070
I1
aI0
aI0
aI0
aI0
aI0
aI0
aI0
aI0
aI0
aI0
aI0
aI1
aI0
aI0
aI0
aI0
aI0
aI0
aI0
aI0
aI0
aI1
aI0
aI0
aI1
asg9
(lp1071
sg11
I01
sg12
I2
sg13
I144
sg14
Nsg15
I144
sba(iCollectionSetFactory
Collection
p1072
(dp1073
g7
(lp1074
I0
aI0
aI0
aI0
aI0
aI0
aI0
aI0
aI0
aI0
aI0
aI0
aI0
aI0
aI1
aI1
aI0
aI0
aI0
aI0
aI0
aI0
aI1
aI0
aI0
aI1
asg9
(lp1075
sg11
I01
sg12
I2
sg13
I138
sg14
Nsg15
I138
sba(iCollectionSetFactory
Collection
p1076
(dp1077
g7
(lp1078
I0
aI0
aI0
aI0
aI0
aI0
aI1
aI0
aI0
aI0
aI0
aI0
aI0
aI0
aI0
aI1
aI0
aI0
aI0
aI0
aI0
aI0
aI1
aI0
aI0
aI1
asg9
(lp1079
sg11
I01
sg12
I2
sg13
I130
sg14
Nsg15
I130
sba(iCollectionSetFactory
Collection
p1080
(dp1081
g7
(lp1082
I0
aI0
aI1
aI0
aI0
aI0
aI0
aI0
aI0
aI0
aI0
aI0
aI0
aI0
aI0
aI1
aI0
aI0
aI0
aI0
aI0
aI0
aI1
aI0
aI0
aI1
asg9
(lp1083
sg11
I01
sg12
I2
sg13
I130
sg14
Nsg15
I130
sba(iCollectionSetFactory
Collection
p1084
(dp1085
g7
(lp1086
I0
aI0
aI0
aI0
aI0
aI0
aI0
aI0
aI0
aI0
aI1
aI0
aI0
aI0
aI0
aI1
aI0
aI0
aI0
aI0
aI0
aI0
aI1
aI0
aI0
aI1
asg9
(lp1087
sg11
I01
sg12
I2
sg13
I126
sg14
Nsg15
I126
sba(iCollectionSetFactory
Collection
p1088
(dp1089
g7
(lp1090
I1
aI0
aI0
aI0
aI0
aI0
aI0
aI0
aI0
aI0
aI0
aI0
aI0
aI0
aI0
aI1
aI0
aI0
aI0
aI0
aI0
aI0
aI1
aI0
aI0
aI1
asg9
(lp1091
sg11
I01
sg12
I2
sg13
I123
sg14
Nsg15
I123
sba(iCollectionSetFactory
Collection
p1092
(dp1093
g7
(lp1094
I0
aI0
aI0
aI0
aI0
aI0
aI0
aI0
aI0
aI0
aI0
aI0
aI0
aI1
aI0
aI1
aI0
aI0
aI0
aI0
aI0
aI0
aI1
aI0
aI0
aI1
asg9
(lp1095
sg11
I01
sg12
I2
sg13
I120
sg14
Nsg15
I120
sba(iCollectionSetFactory
Collection
p1096
(dp1097
g7
(lp1098
I0
aI0
aI0
aI0
aI0
aI0
aI1
aI0
aI0
aI0
aI0
aI0
aI0
aI0
aI0
aI0
aI0
aI0
aI0
aI1
aI0
aI0
aI1
aI0
aI0
aI1
asg9
(lp1099
sg11
I01
sg12
I2
sg13
I118
sg14
Nsg15
I118
sba(iCollectionSetFactory
Collection
p1100
(dp1101
g7
(lp1102
I0
aI0
aI0
aI0
aI0
aI0
aI1
aI0
aI0
aI0
aI0
aI0
aI0
aI0
aI0
aI0
aI1
aI0
aI0
aI0
aI0
aI0
aI1
aI0
aI0
aI1
asg9
(lp1103
sg11
I01
sg12
I2
sg13
I118
sg14
Nsg15
I118
sba(iCollectionSetFactory
Collection
p1104
(dp1105
g7
(lp1106
I0
aI0
aI1
aI0
aI0
aI0
aI0
aI0
aI0
aI0
aI0
aI0
aI0
aI0
aI0
aI0
aI0
aI0
aI0
aI1
aI0
aI0
aI1
aI0
aI0
aI1
asg9
(lp1107
sg11
I01
sg12
I2
sg13
I118
sg14
Nsg15
I118
sba(iCollectionSetFactory
Collection
p1108
(dp1109
g7
(lp1110
I0
aI0
aI1
aI0
aI0
aI0
aI0
aI0
aI0
aI0
aI0
aI0
aI0
aI0
aI0
aI0
aI1
aI0
aI0
aI0
aI0
aI0
aI1
aI0
aI0
aI1
asg9
(lp1111
sg11
I01
sg12
I2
sg13
I118
sg14
Nsg15
I118
sba(iCollectionSetFactory
Collection
p1112
(dp1113
g7
(lp1114
I0
aI0
aI0
aI0
aI1
aI0
aI0
aI0
aI0
aI0
aI0
aI0
aI0
aI0
aI0
aI1
aI0
aI0
aI0
aI0
aI0
aI0
aI1
aI0
aI0
aI1
asg9
(lp1115
sg11
I01
sg12
I2
sg13
I116
sg14
Nsg15
I116
sba(iCollectionSetFactory
Collection
p1116
(dp1117
g7
(lp1118
I0
aI0
aI0
aI0
aI0
aI0
aI0
aI0
aI0
aI0
aI0
aI0
aI0
aI0
aI0
aI0
aI1
aI0
aI0
aI1
aI0
aI0
aI1
aI0
aI0
aI1
asg9
(lp1119
sg11
I01
sg12
I2
sg13
I112
sg14
Nsg15
I112
sba(iCollectionSetFactory
Collection
p1120
(dp1121
g7
(lp1122
I0
aI0
aI0
aI0
aI0
aI0
aI1
aI0
aI0
aI0
aI0
aI0
aI0
aI0
aI0
aI0
aI0
aI1
aI0
aI0
aI0
aI0
aI1
aI0
aI0
aI1
asg9
(lp1123
sg11
I01
sg12
I2
sg13
I112
sg14
Nsg15
I112
sba(iCollectionSetFactory
Collection
p1124
(dp1125
g7
(lp1126
I0
aI0
aI1
aI0
aI0
aI0
aI0
aI0
aI0
aI0
aI0
aI0
aI0
aI0
aI0
aI0
aI0
aI1
aI0
aI0
aI0
aI0
aI1
aI0
aI0
aI1
asg9
(lp1127
sg11
I01
sg12
I2
sg13
I112
sg14
Nsg15
I112
sba(iCollectionSetFactory
Collection
p1128
(dp1129
g7
(lp1130
I0
aI0
aI0
aI0
aI0
aI0
aI0
aI0
aI0
aI0
aI0
aI0
aI0
aI1
aI0
aI0
aI0
aI0
aI1
aI0
aI0
aI1
aI0
aI0
aI0
aI1
asg9
(lp1131
sg11
I01
sg12
I2
sg13
I108
sg14
Nsg15
I108
sba(iCollectionSetFactory
Collection
p1132
(dp1133
g7
(lp1134
I0
aI0
aI0
aI0
aI0
aI0
aI0
aI0
aI0
aI0
aI0
aI1
aI0
aI0
aI0
aI1
aI0
aI0
aI0
aI0
aI0
aI0
aI1
aI0
aI0
aI1
asg9
(lp1135
sg11
I01
sg12
I2
sg13
I108
sg14
Nsg15
I108
sba(iCollectionSetFactory
Collection
p1136
(dp1137
g7
(lp1138
I0
aI0
aI0
aI0
aI0
aI0
aI0
aI0
aI0
aI0
aI1
aI0
aI0
aI0
aI0
aI0
aI1
aI0
aI0
aI0
aI0
aI0
aI1
aI0
aI0
aI1
asg9
(lp1139
sg11
I01
sg12
I2
sg13
I108
sg14
Nsg15
I108
sba(iCollectionSetFactory
Collection
p1140
(dp1141
g7
(lp1142
I0
aI0
aI0
aI0
aI0
aI0
aI0
aI0
aI0
aI1
aI0
aI0
aI0
aI0
aI0
aI1
aI0
aI0
aI0
aI0
aI0
aI0
aI1
aI0
aI0
aI1
asg9
(lp1143
sg11
I01
sg12
I2
sg13
I108
sg14
Nsg15
I108
sba(iCollectionSetFactory
Collection
p1144
(dp1145
g7
(lp1146
I0
aI0
aI0
aI0
aI0
aI0
aI0
aI0
aI1
aI0
aI0
aI0
aI0
aI0
aI0
aI1
aI0
aI0
aI0
aI0
aI0
aI0
aI1
aI0
aI0
aI1
asg9
(lp1147
sg11
I01
sg12
I2
sg13
I108
sg14
Nsg15
I108
sba(iCollectionSetFactory
Collection
p1148
(dp1149
g7
(lp1150
I0
aI0
aI0
aI0
aI0
aI0
aI1
aI0
aI0
aI0
aI0
aI0
aI0
aI0
aI1
aI0
aI0
aI0
aI0
aI0
aI0
aI0
aI1
aI0
aI0
aI1
asg9
(lp1151
sg11
I01
sg12
I2
sg13
I108
sg14
Nsg15
I108
sba(iCollectionSetFactory
Collection
p1152
(dp1153
g7
(lp1154
I0
aI0
aI0
aI0
aI0
aI0
aI1
aI0
aI0
aI0
aI0
aI0
aI0
aI1
aI0
aI0
aI0
aI0
aI0
aI0
aI0
aI0
aI1
aI0
aI0
aI1
asg9
(lp1155
sg11
I01
sg12
I2
sg13
I108
sg14
Nsg15
I108
sba(iCollectionSetFactory
Collection
p1156
(dp1157
g7
(lp1158
I0
aI0
aI1
aI0
aI0
aI0
aI0
aI0
aI0
aI0
aI0
aI0
aI0
aI0
aI1
aI0
aI0
aI0
aI0
aI0
aI0
aI0
aI1
aI0
aI0
aI1
asg9
(lp1159
sg11
I01
sg12
I2
sg13
I108
sg14
Nsg15
I108
sba(iCollectionSetFactory
Collection
p1160
(dp1161
g7
(lp1162
I0
aI0
aI1
aI0
aI0
aI0
aI0
aI0
aI0
aI0
aI0
aI0
aI0
aI1
aI0
aI0
aI0
aI0
aI0
aI0
aI0
aI0
aI1
aI0
aI0
aI1
asg9
(lp1163
sg11
I01
sg12
I2
sg13
I108
sg14
Nsg15
I108
sba(iCollectionSetFactory
Collection
p1164
(dp1165
g7
(lp1166
I0
aI0
aI1
aI0
aI0
aI0
aI1
aI0
aI0
aI0
aI0
aI0
aI0
aI0
aI0
aI0
aI0
aI0
aI0
aI0
aI0
aI0
aI1
aI0
aI0
aI1
asg9
(lp1167
sg11
I01
sg12
I2
sg13
I108
sg14
Nsg15
I108
sba(iCollectionSetFactory
Collection
p1168
(dp1169
g7
(lp1170
I0
aI0
aI1
aI0
aI1
aI0
aI0
aI0
aI0
aI0
aI0
aI0
aI0
aI0
aI0
aI0
aI0
aI0
aI0
aI0
aI0
aI0
aI1
aI0
aI0
aI1
asg9
(lp1171
sg11
I01
sg12
I2
sg13
I108
sg14
Nsg15
I108
sba(iCollectionSetFactory
Collection
p1172
(dp1173
g7
(lp1174
I1
aI0
aI0
aI0
aI0
aI0
aI1
aI0
aI0
aI0
aI0
aI0
aI0
aI0
aI0
aI0
aI0
aI0
aI0
aI0
aI0
aI0
aI1
aI0
aI0
aI1
asg9
(lp1175
sg11
I01
sg12
I2
sg13
I108
sg14
Nsg15
I108
sba(iCollectionSetFactory
Collection
p1176
(dp1177
g7
(lp1178
I1
aI0
aI0
aI0
aI0
aI0
aI0
aI0
aI0
aI0
aI0
aI0
aI0
aI0
aI0
aI0
aI0
aI0
aI0
aI1
aI0
aI0
aI1
aI0
aI0
aI1
asg9
(lp1179
sg11
I01
sg12
I2
sg13
I105
sg14
Nsg15
I105
sba(iCollectionSetFactory
Collection
p1180
(dp1181
g7
(lp1182
I1
aI0
aI0
aI0
aI0
aI0
aI0
aI0
aI0
aI0
aI0
aI0
aI0
aI0
aI0
aI0
aI1
aI0
aI0
aI0
aI0
aI0
aI1
aI0
aI0
aI1
asg9
(lp1183
sg11
I01
sg12
I2
sg13
I105
sg14
Nsg15
I105
sba(iCollectionSetFactory
Collection
p1184
(dp1185
g7
(lp1186
I0
aI0
aI0
aI0
aI0
aI0
aI0
aI0
aI0
aI0
aI0
aI0
aI0
aI1
aI0
aI0
aI1
aI0
aI0
aI0
aI0
aI0
aI1
aI0
aI0
aI1
asg9
(lp1187
sg11
I01
sg12
I2
sg13
I104
sg14
Nsg15
I104
sba(iCollectionSetFactory
Collection
p1188
(dp1189
g7
(lp1190
I0
aI0
aI0
aI0
aI0
aI0
aI0
aI0
aI0
aI0
aI1
aI0
aI0
aI0
aI0
aI0
aI0
aI0
aI0
aI1
aI0
aI0
aI1
aI0
aI0
aI1
asg9
(lp1191
sg11
I01
sg12
I2
sg13
I103
sg14
Nsg15
I103
sba(iCollectionSetFactory
Collection
p1192
(dp1193
g7
(lp1194
I0
aI0
aI0
aI0
aI0
aI0
aI0
aI1
aI0
aI0
aI0
aI0
aI0
aI0
aI0
aI1
aI0
aI0
aI0
aI0
aI0
aI0
aI1
aI0
aI0
aI1
asg9
(lp1195
sg11
I01
sg12
I2
sg13
I102
sg14
Nsg15
I102
sba(iCollectionSetFactory
Collection
p1196
(dp1197
g7
(lp1198
I0
aI0
aI0
aI0
aI0
aI1
aI0
aI0
aI0
aI0
aI0
aI0
aI0
aI0
aI0
aI1
aI0
aI0
aI0
aI0
aI0
aI0
aI1
aI0
aI0
aI1
asg9
(lp1199
sg11
I01
sg12
I2
sg13
I102
sg14
Nsg15
I102
sba(iCollectionSetFactory
Collection
p1200
(dp1201
g7
(lp1202
I0
aI0
aI0
aI0
aI1
aI0
aI0
aI0
aI0
aI0
aI0
aI0
aI0
aI0
aI0
aI0
aI1
aI0
aI0
aI0
aI0
aI0
aI1
aI0
aI0
aI1
asg9
(lp1203
sg11
I01
sg12
I2
sg13
I102
sg14
Nsg15
I102
sba(iCollectionSetFactory
Collection
p1204
(dp1205
g7
(lp1206
I0
aI1
aI0
aI0
aI0
aI0
aI0
aI0
aI0
aI0
aI0
aI0
aI0
aI0
aI0
aI1
aI0
aI0
aI0
aI0
aI0
aI0
aI1
aI0
aI0
aI1
asg9
(lp1207
sg11
I01
sg12
I2
sg13
I102
sg14
Nsg15
I102
sba(iCollectionSetFactory
Collection
p1208
(dp1209
g7
(lp1210
I0
aI0
aI0
aI0
aI0
aI0
aI0
aI0
aI0
aI0
aI0
aI0
aI0
aI0
aI0
aI1
aI0
aI0
aI1
aI0
aI0
aI0
aI1
aI0
aI0
aI1
asg9
(lp1211
sg11
I01
sg12
I2
sg13
I101
sg14
Nsg15
I101
sba(iCollectionSetFactory
Collection
p1212
(dp1213
g7
(lp1214
I0
aI0
aI0
aI0
aI0
aI0
aI0
aI0
aI0
aI0
aI1
aI0
aI0
aI0
aI1
aI0
aI0
aI0
aI0
aI0
aI0
aI0
aI1
aI0
aI0
aI1
asg9
(lp1215
sg11
I01
sg12
I2
sg13
I100
sg14
Nsg15
I100
sba(iCollectionSetFactory
Collection
p1216
(dp1217
g7
(lp1218
I0
aI0
aI0
aI0
aI0
aI0
aI0
aI0
aI0
aI1
aI0
aI0
aI0
aI0
aI0
aI0
aI1
aI0
aI0
aI0
aI0
aI0
aI1
aI0
aI0
aI1
asg9
(lp1219
sg11
I01
sg12
I2
sg13
I100
sg14
Nsg15
I100
sbaasS'IRPcalculated'
p1220
I01
sS'min_rel_sup'
p1221
F0.057870370370370371
sS'supportsCalculated'
p1222
I01
sS'totalBoundAddedValue'
p1223
I1728
sS'totalBoundAddedValueCalculated'
p1224
I01
sS'maximalsFlagged'
p1225
I01
sS'totalIRP'
p1226
F2938.0
sS'addedValuesCalculated'
p1227
I01
sS'maximals'
p1228
(lp1229
g1172
ag1068
ag1088
ag1180
ag1176
ag1064
ag1060
ag1204
ag1056
ag1168
ag1164
ag1052
ag1160
ag1156
ag1080
ag1108
ag1124
ag1104
ag1048
ag1044
ag1040
ag1036
ag1112
ag1200
ag1032
ag1028
ag1196
ag1024
ag1020
ag1152
ag1148
ag1076
ag1100
ag1120
ag1096
ag1016
ag1012
ag1192
ag1008
ag1004
ag1144
ag1000
ag996
ag1140
ag1216
ag992
ag988
ag1212
ag1084
ag1136
ag1188
ag984
ag980
ag1132
ag976
ag968
ag964
ag960
ag956
ag952
ag948
ag1092
ag1184
ag1128
ag944
ag1072
ag940
ag1208
ag972
ag936
ag1116
ag932
ag924
ag903
ag899
ag895
ag891
ag887
ag883
ag879
ag707
ag703
ag691
ag687
ag875
ag871
ag867
ag863
ag859
ag855
ag851
ag847
ag843
ag679
ag675
ag667
ag663
ag659
ag655
ag719
ag839
ag835
ag831
ag827
ag823
ag819
ag631
ag815
ag811
ag807
ag803
ag799
ag795
ag791
ag787
ag623
ag619
ag615
ag611
ag607
ag603
ag599
ag783
ag779
ag775
ag771
ag595
ag591
ag579
ag575
ag571
ag911
ag767
ag763
ag759
ag755
ag567
ag563
ag555
ag551
ag547
ag543
ag715
ag751
ag747
ag743
ag739
ag519
ag735
ag731
ag727
ag723
ag511
ag507
ag499
ag495
ag491
ag487
ag483
ag479
ag471
ag467
ag463
ag459
ag919
ag455
ag451
ag439
ag435
ag431
ag427
ag411
ag407
ag399
ag395
ag387
ag383
ag379
ag375
ag915
ag351
ag343
ag335
ag331
ag327
ag323
ag363
ag907
ag311
ag711
ag303
ag299
ag371
ag367
asS'treeStrat'
p1230
I1
sS'totalAddedValue'
p1231
I35747
sS'treeBuilt'
p1232
I01
sS'totalAddedValueNoSingletons'
p1233
I35229
sS'totalAddedValueCalculated'
p1234
I01
sS'min_abs_sup'
p1235
I100
sS'attributes'
p1236
(lp1237
S'buying_high'
p1238
aS'buying_med'
p1239
aS'buying_vhigh'
p1240
aS'buying_low'
p1241
aS'maint_high'
p1242
aS'maint_med'
p1243
aS'maint_vhigh'
p1244
aS'maint_low'
p1245
aS'doors_5more'
p1246
aS'doors_3'
p1247
aS'doors_2'
p1248
aS'doors_4'
p1249
aS'persons_2'
p1250
aS'persons_4'
p1251
aS'persons_more'
p1252
aS'lug_boot_small'
p1253
aS'lug_boot_med'
p1254
aS'lug_boot_big'
p1255
aS'safety_high'
p1256
aS'safety_med'
p1257
aS'safety_low'
p1258
aS'class_acc'
p1259
aS'class_unacc'
p1260
aS'class_good'
p1261
aS'class_vgood'
p1262
aS'fake_class'
p1263
asS'transactionsTotal'
p1264
I1728
sS'totalBoundAddedValueNoSingletons'
p1265
I1210
sS'collectionsClosed'
p1266
I01
sb.