(iCollectionSetFactory
LayeredCollectionSet
p0
(dp1
S'layers'
p2
(lp3
(lp4
(iCollectionSetFactory
Collection
p5
(dp6
S'elements'
p7
(lp8
I0
aI0
aI0
aI0
aI0
aI0
aI0
aI0
aI0
aI0
aI0
aI0
aI0
aI0
aI0
aI0
aI0
aI0
aI0
aI0
aI0
aI0
aI0
aI0
aI0
aI0
aI0
aI0
aI0
aI0
aI0
aI0
aI0
aI0
aI0
aI0
aI0
aI0
aI0
aI0
aI0
aI0
aI0
aI0
aI0
aI0
aI0
aI0
aI0
aI0
aI0
aI0
aI0
aI0
aI0
aI0
aI0
aI0
aI0
aI0
aI0
aI0
aI0
aI0
aI0
aI0
aI0
aI0
aI0
aI0
aI0
aI0
aI0
aI0
aI0
aI0
aI0
aI0
aI0
aI0
aI0
aI0
aI0
aI0
aI1
aI0
aI0
aI0
aI0
aI0
aI0
aI0
aI0
aI0
aI0
aI0
aI0
aI0
aI0
aI0
aI0
aI0
aI0
aI0
aI0
aI0
aI0
aI0
aI0
aI0
aI0
aI0
aI0
aI0
aI0
aI0
aI0
aI0
aI0
aI0
asS'links'
p9
(lp10
sS'isMaximal'
p11
I00
sS'boundness'
p12
I0
sS'support'
p13
I8124
sS'IRP'
p14
NsS'added_value'
p15
I200
sba(iCollectionSetFactory
Collection
p16
(dp17
g7
(lp18
I0
aI0
aI0
aI0
aI0
aI0
aI0
aI0
aI0
aI0
aI0
aI0
aI0
aI0
aI0
aI0
aI0
aI0
aI0
aI0
aI0
aI0
aI0
aI0
aI0
aI0
aI0
aI0
aI0
aI0
aI0
aI0
aI0
aI0
aI0
aI0
aI0
aI0
aI0
aI0
aI0
aI0
aI0
aI0
aI0
aI0
aI0
aI0
aI0
aI0
aI0
aI0
aI0
aI0
aI0
aI0
aI0
aI0
aI0
aI0
aI0
aI0
aI0
aI0
aI0
aI0
aI0
aI0
aI0
aI0
aI0
aI0
aI0
aI0
aI0
aI0
aI0
aI0
aI0
aI0
aI0
aI0
aI0
aI0
aI0
aI0
aI0
aI1
aI0
aI0
aI0
aI0
aI0
aI0
aI0
aI0
aI0
aI0
aI0
aI0
aI0
aI0
aI0
aI0
aI0
aI0
aI0
aI0
aI0
aI0
aI0
aI0
aI0
aI0
aI0
aI0
aI0
aI0
aI0
aI0
asg9
(lp19
sg11
I00
sg12
I0
sg13
I7924
sg14
Nsg15
I0
sba(iCollectionSetFactory
Collection
p20
(dp21
g7
(lp22
I0
aI0
aI0
aI0
aI0
aI0
aI0
aI0
aI0
aI0
aI0
aI0
aI0
aI0
aI0
aI0
aI0
aI0
aI0
aI0
aI0
aI0
aI0
aI0
aI0
aI0
aI0
aI0
aI0
aI0
aI0
aI0
aI0
aI0
aI1
aI0
aI0
aI0
aI0
aI0
aI0
aI0
aI0
aI0
aI0
aI0
aI0
aI0
aI0
aI0
aI0
aI0
aI0
aI0
aI0
aI0
aI0
aI0
aI0
aI0
aI0
aI0
aI0
aI0
aI0
aI0
aI0
aI0
aI0
aI0
aI0
aI0
aI0
aI0
aI0
aI0
aI0
aI0
aI0
aI0
aI0
aI0
aI0
aI0
aI0
aI0
aI0
aI0
aI0
aI0
aI0
aI0
aI0
aI0
aI0
aI0
aI0
aI0
aI0
aI0
aI0
aI0
aI0
aI0
aI0
aI0
aI0
aI0
aI0
aI0
aI0
aI0
aI0
aI0
aI0
aI0
aI0
aI0
aI0
aI0
asg9
(lp23
sg11
I00
sg12
I0
sg13
I7914
sg14
Nsg15
I0
sba(iCollectionSetFactory
Collection
p24
(dp25
g7
(lp26
I0
aI0
aI0
aI0
aI0
aI0
aI0
aI0
aI0
aI0
aI0
aI0
aI0
aI0
aI0
aI0
aI0
aI0
aI0
aI0
aI0
aI0
aI0
aI0
aI0
aI0
aI0
aI0
aI0
aI0
aI0
aI0
aI0
aI0
aI0
aI0
aI0
aI0
aI0
aI0
aI0
aI0
aI0
aI0
aI0
aI0
aI0
aI0
aI0
aI0
aI0
aI0
aI0
aI0
aI0
aI0
aI0
aI0
aI0
aI0
aI0
aI0
aI0
aI0
aI0
aI0
aI0
aI0
aI0
aI0
aI0
aI0
aI0
aI0
aI0
aI0
aI0
aI0
aI0
aI0
aI0
aI0
aI0
aI0
aI0
aI0
aI0
aI0
aI0
aI0
aI1
aI0
aI0
aI0
aI0
aI0
aI0
aI0
aI0
aI0
aI0
aI0
aI0
aI0
aI0
aI0
aI0
aI0
aI0
aI0
aI0
aI0
aI0
aI0
aI0
aI0
aI0
aI0
aI0
aI0
asg9
(lp27
sg11
I00
sg12
I0
sg13
I7488
sg14
Nsg15
I0
sbaa(lp28
(iCollectionSetFactory
Collection
p29
(dp30
g7
(lp31
I0
aI0
aI0
aI0
aI0
aI0
aI0
aI0
aI0
aI0
aI0
aI0
aI0
aI0
aI0
aI0
aI0
aI0
aI0
aI0
aI0
aI0
aI0
aI0
aI0
aI0
aI0
aI0
aI0
aI0
aI0
aI0
aI0
aI0
aI0
aI0
aI0
aI0
aI0
aI0
aI0
aI0
aI0
aI0
aI0
aI0
aI0
aI0
aI0
aI0
aI0
aI0
aI0
aI0
aI0
aI0
aI0
aI0
aI0
aI0
aI0
aI0
aI0
aI0
aI0
aI0
aI0
aI0
aI0
aI0
aI0
aI0
aI0
aI0
aI0
aI0
aI0
aI0
aI0
aI0
aI0
aI0
aI0
aI0
aI1
aI0
aI0
aI1
aI0
aI0
aI0
aI0
aI0
aI0
aI0
aI0
aI0
aI0
aI0
aI0
aI0
aI0
aI0
aI0
aI0
aI0
aI0
aI0
aI0
aI0
aI0
aI0
aI0
aI0
aI0
aI0
aI0
aI0
aI0
aI0
asg9
(lp32
(iCollectionSetFactory
CollectionLink
p33
(dp34
S'source'
p35
NsS'destination'
p36
g5
sS'type'
p37
S'child'
p38
sS'measure'
p39
Nsba(iCollectionSetFactory
CollectionLink
p40
(dp41
g35
Nsg36
g16
sg37
g38
sg39
Nsbasg11
I00
sg12
I0
sg13
I7924
sg14
F18.0
sg15
I18
sba(iCollectionSetFactory
Collection
p42
(dp43
g7
(lp44
I0
aI0
aI0
aI0
aI0
aI0
aI0
aI0
aI0
aI0
aI0
aI0
aI0
aI0
aI0
aI0
aI0
aI0
aI0
aI0
aI0
aI0
aI0
aI0
aI0
aI0
aI0
aI0
aI0
aI0
aI0
aI0
aI0
aI0
aI1
aI0
aI0
aI0
aI0
aI0
aI0
aI0
aI0
aI0
aI0
aI0
aI0
aI0
aI0
aI0
aI0
aI0
aI0
aI0
aI0
aI0
aI0
aI0
aI0
aI0
aI0
aI0
aI0
aI0
aI0
aI0
aI0
aI0
aI0
aI0
aI0
aI0
aI0
aI0
aI0
aI0
aI0
aI0
aI0
aI0
aI0
aI0
aI0
aI0
aI1
aI0
aI0
aI0
aI0
aI0
aI0
aI0
aI0
aI0
aI0
aI0
aI0
aI0
aI0
aI0
aI0
aI0
aI0
aI0
aI0
aI0
aI0
aI0
aI0
aI0
aI0
aI0
aI0
aI0
aI0
aI0
aI0
aI0
aI0
aI0
asg9
(lp45
sg11
I00
sg12
I2
sg13
I7914
sg14
Nsg15
I8
sba(iCollectionSetFactory
Collection
p46
(dp47
g7
(lp48
I0
aI0
aI0
aI0
aI0
aI0
aI0
aI0
aI0
aI0
aI0
aI0
aI0
aI0
aI0
aI0
aI0
aI0
aI0
aI0
aI0
aI0
aI0
aI0
aI0
aI0
aI0
aI0
aI0
aI0
aI0
aI0
aI0
aI0
aI0
aI0
aI0
aI0
aI0
aI0
aI0
aI0
aI0
aI0
aI0
aI0
aI0
aI0
aI0
aI0
aI0
aI0
aI0
aI0
aI0
aI0
aI0
aI0
aI0
aI0
aI0
aI0
aI0
aI0
aI0
aI0
aI0
aI0
aI0
aI0
aI0
aI0
aI0
aI0
aI0
aI0
aI0
aI0
aI0
aI0
aI0
aI0
aI0
aI0
aI1
aI0
aI0
aI0
aI0
aI0
aI1
aI0
aI0
aI0
aI0
aI0
aI0
aI0
aI0
aI0
aI0
aI0
aI0
aI0
aI0
aI0
aI0
aI0
aI0
aI0
aI0
aI0
aI0
aI0
aI0
aI0
aI0
aI0
aI0
aI0
asg9
(lp49
sg11
I00
sg12
I2
sg13
I7488
sg14
Nsg15
I192
sbaa(lp50
(iCollectionSetFactory
Collection
p51
(dp52
g7
(lp53
I0
aI0
aI0
aI0
aI0
aI0
aI0
aI0
aI0
aI0
aI0
aI0
aI0
aI0
aI0
aI0
aI0
aI0
aI0
aI0
aI0
aI0
aI0
aI0
aI0
aI0
aI0
aI0
aI0
aI0
aI0
aI0
aI0
aI0
aI1
aI0
aI0
aI0
aI0
aI0
aI0
aI0
aI0
aI0
aI0
aI0
aI0
aI0
aI0
aI0
aI0
aI0
aI0
aI0
aI0
aI0
aI0
aI0
aI0
aI0
aI0
aI0
aI0
aI0
aI0
aI0
aI0
aI0
aI0
aI0
aI0
aI0
aI0
aI0
aI0
aI0
aI0
aI0
aI0
aI0
aI0
aI0
aI0
aI0
aI1
aI0
aI0
aI1
aI0
aI0
aI0
aI0
aI0
aI0
aI0
aI0
aI0
aI0
aI0
aI0
aI0
aI0
aI0
aI0
aI0
aI0
aI0
aI0
aI0
aI0
aI0
aI0
aI0
aI0
aI0
aI0
aI0
aI0
aI0
aI0
asg9
(lp54
(iCollectionSetFactory
CollectionLink
p55
(dp56
g35
Nsg36
g29
sg37
g38
sg39
Nsba(iCollectionSetFactory
CollectionLink
p57
(dp58
g35
Nsg36
g20
sg37
g38
sg39
Nsbasg11
I00
sg12
I0
sg13
I7906
sg14
F1854.0
sg15
I618
sba(iCollectionSetFactory
Collection
p59
(dp60
g7
(lp61
I0
aI0
aI0
aI0
aI0
aI0
aI0
aI0
aI0
aI0
aI0
aI0
aI0
aI0
aI0
aI0
aI0
aI0
aI0
aI0
aI0
aI0
aI0
aI0
aI0
aI0
aI0
aI0
aI0
aI0
aI0
aI0
aI0
aI0
aI1
aI0
aI0
aI0
aI0
aI0
aI0
aI0
aI0
aI0
aI0
aI0
aI0
aI0
aI0
aI0
aI0
aI0
aI0
aI0
aI0
aI0
aI0
aI0
aI0
aI0
aI0
aI0
aI0
aI0
aI0
aI0
aI0
aI0
aI0
aI0
aI0
aI0
aI0
aI0
aI0
aI0
aI0
aI0
aI0
aI0
aI0
aI0
aI0
aI0
aI1
aI0
aI0
aI0
aI0
aI0
aI1
aI0
aI0
aI0
aI0
aI0
aI0
aI0
aI0
aI0
aI0
aI0
aI0
aI0
aI0
aI0
aI0
aI0
aI0
aI0
aI0
aI0
aI0
aI0
aI0
aI0
aI0
aI0
aI0
aI0
asg9
(lp62
sg11
I00
sg12
I2
sg13
I7296
sg14
Nsg15
I8
sbaa(lp63
(iCollectionSetFactory
Collection
p64
(dp65
g7
(lp66
I0
aI0
aI0
aI0
aI0
aI0
aI0
aI0
aI0
aI0
aI0
aI0
aI0
aI0
aI0
aI0
aI0
aI0
aI0
aI0
aI0
aI0
aI0
aI0
aI0
aI0
aI0
aI0
aI0
aI0
aI0
aI0
aI0
aI0
aI1
aI0
aI0
aI0
aI0
aI0
aI0
aI0
aI0
aI0
aI0
aI0
aI0
aI0
aI0
aI0
aI0
aI0
aI0
aI0
aI0
aI0
aI0
aI0
aI0
aI0
aI0
aI0
aI0
aI0
aI0
aI0
aI0
aI0
aI0
aI0
aI0
aI0
aI0
aI0
aI0
aI0
aI0
aI0
aI0
aI0
aI0
aI0
aI0
aI0
aI1
aI0
aI0
aI1
aI0
aI0
aI1
aI0
aI0
aI0
aI0
aI0
aI0
aI0
aI0
aI0
aI0
aI0
aI0
aI0
aI0
aI0
aI0
aI0
aI0
aI0
aI0
aI0
aI0
aI0
aI0
aI0
aI0
aI0
aI0
aI0
asg9
(lp67
(iCollectionSetFactory
CollectionLink
p68
(dp69
g35
Nsg36
g51
sg37
g38
sg39
Nsba(iCollectionSetFactory
CollectionLink
p70
(dp71
g35
Nsg36
g24
sg37
g38
sg39
Nsbasg11
I01
sg12
I0
sg13
I7288
sg14
F43728.0
sg15
I7288
sbaasS'IRPcalculated'
p72
I01
sS'min_rel_sup'
p73
F0.86164451009354992
sS'supportsCalculated'
p74
I01
sS'totalBoundAddedValue'
p75
I8124
sS'totalBoundAddedValueCalculated'
p76
I01
sS'maximalsFlagged'
p77
I01
sS'totalIRP'
p78
F45600.0
sS'addedValuesCalculated'
p79
I01
sS'maximals'
p80
(lp81
g64
asS'treeStrat'
p82
I1
sS'totalAddedValue'
p83
I8332
sS'treeBuilt'
p84
I01
sS'totalAddedValueNoSingletons'
p85
I8132
sS'totalAddedValueCalculated'
p86
I01
sS'min_abs_sup'
p87
I7000
sS'attributes'
p88
(lp89
S'edible?:edible'
p90
aS'edible?:poisonous'
p91
aS'cap-shape:bell'
p92
aS'cap-shape:conical'
p93
aS'cap-shape:flat'
p94
aS'cap-shape:knobbed'
p95
aS'cap-shape:sunken'
p96
aS'cap-shape:convex'
p97
aS'cap-surface:fibrous'
p98
aS'cap-surface:grooves'
p99
aS'cap-surface:smooth'
p100
aS'cap-surface:scaly'
p101
aS'cap-color:buff'
p102
aS'cap-color:cinnamon'
p103
aS'cap-color:red'
p104
aS'cap-color:gray'
p105
aS'cap-color:brown'
p106
aS'cap-color:pink'
p107
aS'cap-color:green'
p108
aS'cap-color:purple'
p109
aS'cap-color:white'
p110
aS'cap-color:yellow'
p111
aS'bruises?:no'
p112
aS'bruises?:bruises'
p113
aS'odor:almond'
p114
aS'odor:creosote'
p115
aS'odor:foul'
p116
aS'odor:anise'
p117
aS'odor:musty'
p118
aS'odor:none'
p119
aS'odor:pungent'
p120
aS'odor:spicy'
p121
aS'odor:fishy'
p122
aS'gill-attachment:attached'
p123
aS'gill-attachment:free'
p124
aS'gill-spacing:close'
p125
aS'gill-spacing:crowded'
p126
aS'gill-size:broad'
p127
aS'gill-size:narrow'
p128
aS'gill-color:buff'
p129
aS'gill-color:red'
p130
aS'gill-color:gray'
p131
aS'gill-color:chocolate'
p132
aS'gill-color:black'
p133
aS'gill-color:brown'
p134
aS'gill-color:orange'
p135
aS'gill-color:pink'
p136
aS'gill-color:green'
p137
aS'gill-color:purple'
p138
aS'gill-color:white'
p139
aS'gill-color:yellow'
p140
aS'stalk-shape:enlarging'
p141
aS'stalk-shape:tapering'
p142
aS'stalk-root:!!!missing!!!'
p143
aS'stalk-root:bulbous'
p144
aS'stalk-root:club'
p145
aS'stalk-root:equal'
p146
aS'stalk-root:rooted'
p147
aS'stalk-surface-above-ring:fibrous'
p148
aS'stalk-surface-above-ring:silky'
p149
aS'stalk-surface-above-ring:smooth'
p150
aS'stalk-surface-above-ring:scaly'
p151
aS'stalk-surface-below-ring:fibrous'
p152
aS'stalk-surface-below-ring:silky'
p153
aS'stalk-surface-below-ring:smooth'
p154
aS'stalk-surface-below-ring:scaly'
p155
aS'stalk-color-above-ring:buff'
p156
aS'stalk-color-above-ring:cinnamon'
p157
aS'stalk-color-above-ring:red'
p158
aS'stalk-color-above-ring:gray'
p159
aS'stalk-color-above-ring:brown'
p160
aS'stalk-color-above-ring:orange'
p161
aS'stalk-color-above-ring:pink'
p162
aS'stalk-color-above-ring:white'
p163
aS'stalk-color-above-ring:yellow'
p164
aS'stalk-color-below-ring:buff'
p165
aS'stalk-color-below-ring:cinnamon'
p166
aS'stalk-color-below-ring:red'
p167
aS'stalk-color-below-ring:gray'
p168
aS'stalk-color-below-ring:brown'
p169
aS'stalk-color-below-ring:orange'
p170
aS'stalk-color-below-ring:pink'
p171
aS'stalk-color-below-ring:white'
p172
aS'stalk-color-below-ring:yellow'
p173
aS'veil-type:partial'
p174
aS'veil-color:brown'
p175
aS'veil-color:orange'
p176
aS'veil-color:white'
p177
aS'veil-color:yellow'
p178
aS'ring-number:none'
p179
aS'ring-number:one'
p180
aS'ring-number:two'
p181
aS'ring-type:evanescent'
p182
aS'ring-type:flaring'
p183
aS'ring-type:large'
p184
aS'ring-type:none'
p185
aS'ring-type:pendant'
p186
aS'spore-print-color:buff'
p187
aS'spore-print-color:chocolate'
p188
aS'spore-print-color:black'
p189
aS'spore-print-color:brown'
p190
aS'spore-print-color:orange'
p191
aS'spore-print-color:green'
p192
aS'spore-print-color:purple'
p193
aS'spore-print-color:white'
p194
aS'spore-print-color:yellow'
p195
aS'population:abundant'
p196
aS'population:clustered'
p197
aS'population:numerous'
p198
aS'population:scattered'
p199
aS'population:several'
p200
aS'population:solitary'
p201
aS'habitat:woods'
p202
aS'habitat:grasses'
p203
aS'habitat:leaves'
p204
aS'habitat:meadows'
p205
aS'habitat:paths'
p206
aS'habitat:urban'
p207
aS'habitat:waste'
p208
aS'Generic_Fake_Class'
p209
asS'transactionsTotal'
p210
I8124
sS'totalBoundAddedValueNoSingletons'
p211
I7924
sS'collectionsClosed'
p212
I01
sb.