(iCollectionSetFactory
LayeredCollectionSet
p0
(dp1
S'layers'
p2
(lp3
(lp4
(iCollectionSetFactory
Collection
p5
(dp6
S'elements'
p7
(lp8
I0
aI0
aI0
aI0
aI0
aI0
aI0
aI0
aI0
aI0
aI0
aI0
aI0
aI0
aI0
aI0
aI0
aI0
aI0
aI0
aI0
aI0
aI0
aI0
aI0
aI0
aI0
aI0
aI0
aI0
aI0
aI0
aI0
aI0
aI0
aI0
aI0
aI0
aI0
aI0
aI0
aI0
aI0
aI0
aI0
aI0
aI0
aI0
aI0
aI0
aI0
aI0
aI0
aI0
aI0
aI0
aI0
aI0
aI0
aI0
aI0
aI0
aI0
aI0
aI0
aI0
aI0
aI0
aI0
aI0
aI0
aI0
aI0
aI0
aI0
aI0
aI0
aI0
aI0
aI0
aI0
aI0
aI0
aI0
aI1
aI0
aI0
aI0
aI0
aI0
aI0
aI0
aI0
aI0
aI0
aI0
aI0
aI0
aI0
aI0
aI0
aI0
aI0
aI0
aI0
aI0
aI0
aI0
aI0
aI0
aI0
aI0
aI0
aI0
aI0
aI0
aI0
aI0
aI0
aI0
asS'links'
p9
(lp10
sS'isMaximal'
p11
I00
sS'boundness'
p12
I0
sS'support'
p13
I8124
sS'IRP'
p14
NsS'added_value'
p15
I200
sba(iCollectionSetFactory
Collection
p16
(dp17
g7
(lp18
I0
aI0
aI0
aI0
aI0
aI0
aI0
aI0
aI0
aI0
aI0
aI0
aI0
aI0
aI0
aI0
aI0
aI0
aI0
aI0
aI0
aI0
aI0
aI0
aI0
aI0
aI0
aI0
aI0
aI0
aI0
aI0
aI0
aI0
aI0
aI0
aI0
aI0
aI0
aI0
aI0
aI0
aI0
aI0
aI0
aI0
aI0
aI0
aI0
aI0
aI0
aI0
aI0
aI0
aI0
aI0
aI0
aI0
aI0
aI0
aI0
aI0
aI0
aI0
aI0
aI0
aI0
aI0
aI0
aI0
aI0
aI0
aI0
aI0
aI0
aI0
aI0
aI0
aI0
aI0
aI0
aI0
aI0
aI0
aI0
aI0
aI0
aI1
aI0
aI0
aI0
aI0
aI0
aI0
aI0
aI0
aI0
aI0
aI0
aI0
aI0
aI0
aI0
aI0
aI0
aI0
aI0
aI0
aI0
aI0
aI0
aI0
aI0
aI0
aI0
aI0
aI0
aI0
aI0
aI0
asg9
(lp19
sg11
I00
sg12
I0
sg13
I7924
sg14
Nsg15
I0
sba(iCollectionSetFactory
Collection
p20
(dp21
g7
(lp22
I0
aI0
aI0
aI0
aI0
aI0
aI0
aI0
aI0
aI0
aI0
aI0
aI0
aI0
aI0
aI0
aI0
aI0
aI0
aI0
aI0
aI0
aI0
aI0
aI0
aI0
aI0
aI0
aI0
aI0
aI0
aI0
aI0
aI0
aI1
aI0
aI0
aI0
aI0
aI0
aI0
aI0
aI0
aI0
aI0
aI0
aI0
aI0
aI0
aI0
aI0
aI0
aI0
aI0
aI0
aI0
aI0
aI0
aI0
aI0
aI0
aI0
aI0
aI0
aI0
aI0
aI0
aI0
aI0
aI0
aI0
aI0
aI0
aI0
aI0
aI0
aI0
aI0
aI0
aI0
aI0
aI0
aI0
aI0
aI0
aI0
aI0
aI0
aI0
aI0
aI0
aI0
aI0
aI0
aI0
aI0
aI0
aI0
aI0
aI0
aI0
aI0
aI0
aI0
aI0
aI0
aI0
aI0
aI0
aI0
aI0
aI0
aI0
aI0
aI0
aI0
aI0
aI0
aI0
aI0
asg9
(lp23
sg11
I00
sg12
I0
sg13
I7914
sg14
Nsg15
I0
sba(iCollectionSetFactory
Collection
p24
(dp25
g7
(lp26
I0
aI0
aI0
aI0
aI0
aI0
aI0
aI0
aI0
aI0
aI0
aI0
aI0
aI0
aI0
aI0
aI0
aI0
aI0
aI0
aI0
aI0
aI0
aI0
aI0
aI0
aI0
aI0
aI0
aI0
aI0
aI0
aI0
aI0
aI0
aI0
aI0
aI0
aI0
aI0
aI0
aI0
aI0
aI0
aI0
aI0
aI0
aI0
aI0
aI0
aI0
aI0
aI0
aI0
aI0
aI0
aI0
aI0
aI0
aI0
aI0
aI0
aI0
aI0
aI0
aI0
aI0
aI0
aI0
aI0
aI0
aI0
aI0
aI0
aI0
aI0
aI0
aI0
aI0
aI0
aI0
aI0
aI0
aI0
aI0
aI0
aI0
aI0
aI0
aI0
aI1
aI0
aI0
aI0
aI0
aI0
aI0
aI0
aI0
aI0
aI0
aI0
aI0
aI0
aI0
aI0
aI0
aI0
aI0
aI0
aI0
aI0
aI0
aI0
aI0
aI0
aI0
aI0
aI0
aI0
asg9
(lp27
sg11
I00
sg12
I0
sg13
I7488
sg14
Nsg15
I0
sba(iCollectionSetFactory
Collection
p28
(dp29
g7
(lp30
I0
aI0
aI0
aI0
aI0
aI0
aI0
aI0
aI0
aI0
aI0
aI0
aI0
aI0
aI0
aI0
aI0
aI0
aI0
aI0
aI0
aI0
aI0
aI0
aI0
aI0
aI0
aI0
aI0
aI0
aI0
aI0
aI0
aI0
aI0
aI1
aI0
aI0
aI0
aI0
aI0
aI0
aI0
aI0
aI0
aI0
aI0
aI0
aI0
aI0
aI0
aI0
aI0
aI0
aI0
aI0
aI0
aI0
aI0
aI0
aI0
aI0
aI0
aI0
aI0
aI0
aI0
aI0
aI0
aI0
aI0
aI0
aI0
aI0
aI0
aI0
aI0
aI0
aI0
aI0
aI0
aI0
aI0
aI0
aI0
aI0
aI0
aI0
aI0
aI0
aI0
aI0
aI0
aI0
aI0
aI0
aI0
aI0
aI0
aI0
aI0
aI0
aI0
aI0
aI0
aI0
aI0
aI0
aI0
aI0
aI0
aI0
aI0
aI0
aI0
aI0
aI0
aI0
aI0
aI0
asg9
(lp31
sg11
I00
sg12
I0
sg13
I6812
sg14
Nsg15
I0
sba(iCollectionSetFactory
Collection
p32
(dp33
g7
(lp34
I0
aI0
aI0
aI0
aI0
aI0
aI0
aI0
aI0
aI0
aI0
aI0
aI0
aI0
aI0
aI0
aI0
aI0
aI0
aI0
aI0
aI0
aI0
aI0
aI0
aI0
aI0
aI0
aI0
aI0
aI0
aI0
aI0
aI0
aI0
aI0
aI0
aI1
aI0
aI0
aI0
aI0
aI0
aI0
aI0
aI0
aI0
aI0
aI0
aI0
aI0
aI0
aI0
aI0
aI0
aI0
aI0
aI0
aI0
aI0
aI0
aI0
aI0
aI0
aI0
aI0
aI0
aI0
aI0
aI0
aI0
aI0
aI0
aI0
aI0
aI0
aI0
aI0
aI0
aI0
aI0
aI0
aI0
aI0
aI0
aI0
aI0
aI0
aI0
aI0
aI0
aI0
aI0
aI0
aI0
aI0
aI0
aI0
aI0
aI0
aI0
aI0
aI0
aI0
aI0
aI0
aI0
aI0
aI0
aI0
aI0
aI0
aI0
aI0
aI0
aI0
aI0
aI0
aI0
aI0
asg9
(lp35
sg11
I00
sg12
I2
sg13
I5612
sg14
Nsg15
I0
sba(iCollectionSetFactory
Collection
p36
(dp37
g7
(lp38
I0
aI0
aI0
aI0
aI0
aI0
aI0
aI0
aI0
aI0
aI0
aI0
aI0
aI0
aI0
aI0
aI0
aI0
aI0
aI0
aI0
aI0
aI0
aI0
aI0
aI0
aI0
aI0
aI0
aI0
aI0
aI0
aI0
aI0
aI0
aI0
aI0
aI0
aI0
aI0
aI0
aI0
aI0
aI0
aI0
aI0
aI0
aI0
aI0
aI0
aI0
aI0
aI0
aI0
aI0
aI0
aI0
aI0
aI0
aI0
aI1
aI0
aI0
aI0
aI0
aI0
aI0
aI0
aI0
aI0
aI0
aI0
aI0
aI0
aI0
aI0
aI0
aI0
aI0
aI0
aI0
aI0
aI0
aI0
aI0
aI0
aI0
aI0
aI0
aI0
aI0
aI0
aI0
aI0
aI0
aI0
aI0
aI0
aI0
aI0
aI0
aI0
aI0
aI0
aI0
aI0
aI0
aI0
aI0
aI0
aI0
aI0
aI0
aI0
aI0
aI0
aI0
aI0
aI0
aI0
asg9
(lp39
sg11
I00
sg12
I2
sg13
I5176
sg14
Nsg15
I0
sbaa(lp40
(iCollectionSetFactory
Collection
p41
(dp42
g7
(lp43
I0
aI0
aI0
aI0
aI0
aI0
aI0
aI0
aI0
aI0
aI0
aI0
aI0
aI0
aI0
aI0
aI0
aI0
aI0
aI0
aI0
aI0
aI0
aI0
aI0
aI0
aI0
aI0
aI0
aI0
aI0
aI0
aI0
aI0
aI0
aI0
aI0
aI0
aI0
aI0
aI0
aI0
aI0
aI0
aI0
aI0
aI0
aI0
aI0
aI0
aI0
aI0
aI0
aI0
aI0
aI0
aI0
aI0
aI0
aI0
aI0
aI0
aI0
aI0
aI0
aI0
aI0
aI0
aI0
aI0
aI0
aI0
aI0
aI0
aI0
aI0
aI0
aI0
aI0
aI0
aI0
aI0
aI0
aI0
aI1
aI0
aI0
aI1
aI0
aI0
aI0
aI0
aI0
aI0
aI0
aI0
aI0
aI0
aI0
aI0
aI0
aI0
aI0
aI0
aI0
aI0
aI0
aI0
aI0
aI0
aI0
aI0
aI0
aI0
aI0
aI0
aI0
aI0
aI0
aI0
asg9
(lp44
(iCollectionSetFactory
CollectionLink
p45
(dp46
S'source'
p47
NsS'destination'
p48
g5
sS'type'
p49
S'child'
p50
sS'measure'
p51
Nsba(iCollectionSetFactory
CollectionLink
p52
(dp53
g47
Nsg48
g16
sg49
g50
sg51
Nsbasg11
I00
sg12
I0
sg13
I7924
sg14
F18.0
sg15
I18
sba(iCollectionSetFactory
Collection
p54
(dp55
g7
(lp56
I0
aI0
aI0
aI0
aI0
aI0
aI0
aI0
aI0
aI0
aI0
aI0
aI0
aI0
aI0
aI0
aI0
aI0
aI0
aI0
aI0
aI0
aI0
aI0
aI0
aI0
aI0
aI0
aI0
aI0
aI0
aI0
aI0
aI0
aI1
aI0
aI0
aI0
aI0
aI0
aI0
aI0
aI0
aI0
aI0
aI0
aI0
aI0
aI0
aI0
aI0
aI0
aI0
aI0
aI0
aI0
aI0
aI0
aI0
aI0
aI0
aI0
aI0
aI0
aI0
aI0
aI0
aI0
aI0
aI0
aI0
aI0
aI0
aI0
aI0
aI0
aI0
aI0
aI0
aI0
aI0
aI0
aI0
aI0
aI1
aI0
aI0
aI0
aI0
aI0
aI0
aI0
aI0
aI0
aI0
aI0
aI0
aI0
aI0
aI0
aI0
aI0
aI0
aI0
aI0
aI0
aI0
aI0
aI0
aI0
aI0
aI0
aI0
aI0
aI0
aI0
aI0
aI0
aI0
aI0
asg9
(lp57
sg11
I00
sg12
I2
sg13
I7914
sg14
Nsg15
I8
sba(iCollectionSetFactory
Collection
p58
(dp59
g7
(lp60
I0
aI0
aI0
aI0
aI0
aI0
aI0
aI0
aI0
aI0
aI0
aI0
aI0
aI0
aI0
aI0
aI0
aI0
aI0
aI0
aI0
aI0
aI0
aI0
aI0
aI0
aI0
aI0
aI0
aI0
aI0
aI0
aI0
aI0
aI0
aI0
aI0
aI0
aI0
aI0
aI0
aI0
aI0
aI0
aI0
aI0
aI0
aI0
aI0
aI0
aI0
aI0
aI0
aI0
aI0
aI0
aI0
aI0
aI0
aI0
aI0
aI0
aI0
aI0
aI0
aI0
aI0
aI0
aI0
aI0
aI0
aI0
aI0
aI0
aI0
aI0
aI0
aI0
aI0
aI0
aI0
aI0
aI0
aI0
aI1
aI0
aI0
aI0
aI0
aI0
aI1
aI0
aI0
aI0
aI0
aI0
aI0
aI0
aI0
aI0
aI0
aI0
aI0
aI0
aI0
aI0
aI0
aI0
aI0
aI0
aI0
aI0
aI0
aI0
aI0
aI0
aI0
aI0
aI0
aI0
asg9
(lp61
sg11
I00
sg12
I2
sg13
I7488
sg14
Nsg15
I192
sba(iCollectionSetFactory
Collection
p62
(dp63
g7
(lp64
I0
aI0
aI0
aI0
aI0
aI0
aI0
aI0
aI0
aI0
aI0
aI0
aI0
aI0
aI0
aI0
aI0
aI0
aI0
aI0
aI0
aI0
aI0
aI0
aI0
aI0
aI0
aI0
aI0
aI0
aI0
aI0
aI0
aI0
aI0
aI1
aI0
aI0
aI0
aI0
aI0
aI0
aI0
aI0
aI0
aI0
aI0
aI0
aI0
aI0
aI0
aI0
aI0
aI0
aI0
aI0
aI0
aI0
aI0
aI0
aI0
aI0
aI0
aI0
aI0
aI0
aI0
aI0
aI0
aI0
aI0
aI0
aI0
aI0
aI0
aI0
aI0
aI0
aI0
aI0
aI0
aI0
aI0
aI0
aI1
aI0
aI0
aI0
aI0
aI0
aI0
aI0
aI0
aI0
aI0
aI0
aI0
aI0
aI0
aI0
aI0
aI0
aI0
aI0
aI0
aI0
aI0
aI0
aI0
aI0
aI0
aI0
aI0
aI0
aI0
aI0
aI0
aI0
aI0
aI0
asg9
(lp65
sg11
I00
sg12
I2
sg13
I6812
sg14
Nsg15
I192
sba(iCollectionSetFactory
Collection
p66
(dp67
g7
(lp68
I0
aI0
aI0
aI0
aI0
aI0
aI0
aI0
aI0
aI0
aI0
aI0
aI0
aI0
aI0
aI0
aI0
aI0
aI0
aI0
aI0
aI0
aI0
aI0
aI0
aI0
aI0
aI0
aI0
aI0
aI0
aI0
aI0
aI0
aI0
aI0
aI0
aI1
aI0
aI0
aI0
aI0
aI0
aI0
aI0
aI0
aI0
aI0
aI0
aI0
aI0
aI0
aI0
aI0
aI0
aI0
aI0
aI0
aI0
aI0
aI0
aI0
aI0
aI0
aI0
aI0
aI0
aI0
aI0
aI0
aI0
aI0
aI0
aI0
aI0
aI0
aI0
aI0
aI0
aI0
aI0
aI0
aI0
aI0
aI1
aI0
aI0
aI0
aI0
aI0
aI0
aI0
aI0
aI0
aI0
aI0
aI0
aI0
aI0
aI0
aI0
aI0
aI0
aI0
aI0
aI0
aI0
aI0
aI0
aI0
aI0
aI0
aI0
aI0
aI0
aI0
aI0
aI0
aI0
aI0
asg9
(lp69
sg11
I00
sg12
I2
sg13
I5612
sg14
Nsg15
I192
sba(iCollectionSetFactory
Collection
p70
(dp71
g7
(lp72
I0
aI0
aI0
aI0
aI0
aI0
aI0
aI0
aI0
aI0
aI0
aI0
aI0
aI0
aI0
aI0
aI0
aI0
aI0
aI0
aI0
aI0
aI0
aI0
aI0
aI0
aI0
aI0
aI0
aI0
aI0
aI0
aI0
aI0
aI0
aI0
aI0
aI0
aI0
aI0
aI0
aI0
aI0
aI0
aI0
aI0
aI0
aI0
aI0
aI0
aI0
aI0
aI0
aI0
aI0
aI0
aI0
aI0
aI0
aI0
aI1
aI0
aI0
aI0
aI0
aI0
aI0
aI0
aI0
aI0
aI0
aI0
aI0
aI0
aI0
aI0
aI0
aI0
aI0
aI0
aI0
aI0
aI0
aI0
aI1
aI0
aI0
aI0
aI0
aI0
aI0
aI0
aI0
aI0
aI0
aI0
aI0
aI0
aI0
aI0
aI0
aI0
aI0
aI0
aI0
aI0
aI0
aI0
aI0
aI0
aI0
aI0
aI0
aI0
aI0
aI0
aI0
aI0
aI0
aI0
asg9
(lp73
sg11
I01
sg12
I2
sg13
I5176
sg14
Nsg15
I5176
sbaa(lp74
(iCollectionSetFactory
Collection
p75
(dp76
g7
(lp77
I0
aI0
aI0
aI0
aI0
aI0
aI0
aI0
aI0
aI0
aI0
aI0
aI0
aI0
aI0
aI0
aI0
aI0
aI0
aI0
aI0
aI0
aI0
aI0
aI0
aI0
aI0
aI0
aI0
aI0
aI0
aI0
aI0
aI0
aI1
aI0
aI0
aI0
aI0
aI0
aI0
aI0
aI0
aI0
aI0
aI0
aI0
aI0
aI0
aI0
aI0
aI0
aI0
aI0
aI0
aI0
aI0
aI0
aI0
aI0
aI0
aI0
aI0
aI0
aI0
aI0
aI0
aI0
aI0
aI0
aI0
aI0
aI0
aI0
aI0
aI0
aI0
aI0
aI0
aI0
aI0
aI0
aI0
aI0
aI1
aI0
aI0
aI1
aI0
aI0
aI0
aI0
aI0
aI0
aI0
aI0
aI0
aI0
aI0
aI0
aI0
aI0
aI0
aI0
aI0
aI0
aI0
aI0
aI0
aI0
aI0
aI0
aI0
aI0
aI0
aI0
aI0
aI0
aI0
aI0
asg9
(lp78
(iCollectionSetFactory
CollectionLink
p79
(dp80
g47
Nsg48
g41
sg49
g50
sg51
Nsba(iCollectionSetFactory
CollectionLink
p81
(dp82
g47
Nsg48
g20
sg49
g50
sg51
Nsbasg11
I00
sg12
I0
sg13
I7906
sg14
F1854.0
sg15
I618
sba(iCollectionSetFactory
Collection
p83
(dp84
g7
(lp85
I0
aI0
aI0
aI0
aI0
aI0
aI0
aI0
aI0
aI0
aI0
aI0
aI0
aI0
aI0
aI0
aI0
aI0
aI0
aI0
aI0
aI0
aI0
aI0
aI0
aI0
aI0
aI0
aI0
aI0
aI0
aI0
aI0
aI0
aI1
aI0
aI0
aI0
aI0
aI0
aI0
aI0
aI0
aI0
aI0
aI0
aI0
aI0
aI0
aI0
aI0
aI0
aI0
aI0
aI0
aI0
aI0
aI0
aI0
aI0
aI0
aI0
aI0
aI0
aI0
aI0
aI0
aI0
aI0
aI0
aI0
aI0
aI0
aI0
aI0
aI0
aI0
aI0
aI0
aI0
aI0
aI0
aI0
aI0
aI1
aI0
aI0
aI0
aI0
aI0
aI1
aI0
aI0
aI0
aI0
aI0
aI0
aI0
aI0
aI0
aI0
aI0
aI0
aI0
aI0
aI0
aI0
aI0
aI0
aI0
aI0
aI0
aI0
aI0
aI0
aI0
aI0
aI0
aI0
aI0
asg9
(lp86
sg11
I00
sg12
I2
sg13
I7296
sg14
Nsg15
I8
sba(iCollectionSetFactory
Collection
p87
(dp88
g7
(lp89
I0
aI0
aI0
aI0
aI0
aI0
aI0
aI0
aI0
aI0
aI0
aI0
aI0
aI0
aI0
aI0
aI0
aI0
aI0
aI0
aI0
aI0
aI0
aI0
aI0
aI0
aI0
aI0
aI0
aI0
aI0
aI0
aI0
aI0
aI0
aI1
aI0
aI0
aI0
aI0
aI0
aI0
aI0
aI0
aI0
aI0
aI0
aI0
aI0
aI0
aI0
aI0
aI0
aI0
aI0
aI0
aI0
aI0
aI0
aI0
aI0
aI0
aI0
aI0
aI0
aI0
aI0
aI0
aI0
aI0
aI0
aI0
aI0
aI0
aI0
aI0
aI0
aI0
aI0
aI0
aI0
aI0
aI0
aI0
aI1
aI0
aI0
aI1
aI0
aI0
aI0
aI0
aI0
aI0
aI0
aI0
aI0
aI0
aI0
aI0
aI0
aI0
aI0
aI0
aI0
aI0
aI0
aI0
aI0
aI0
aI0
aI0
aI0
aI0
aI0
aI0
aI0
aI0
aI0
aI0
asg9
(lp90
sg11
I00
sg12
I2
sg13
I6620
sg14
Nsg15
I18
sba(iCollectionSetFactory
Collection
p91
(dp92
g7
(lp93
I0
aI0
aI0
aI0
aI0
aI0
aI0
aI0
aI0
aI0
aI0
aI0
aI0
aI0
aI0
aI0
aI0
aI0
aI0
aI0
aI0
aI0
aI0
aI0
aI0
aI0
aI0
aI0
aI0
aI0
aI0
aI0
aI0
aI0
aI0
aI1
aI0
aI0
aI0
aI0
aI0
aI0
aI0
aI0
aI0
aI0
aI0
aI0
aI0
aI0
aI0
aI0
aI0
aI0
aI0
aI0
aI0
aI0
aI0
aI0
aI0
aI0
aI0
aI0
aI0
aI0
aI0
aI0
aI0
aI0
aI0
aI0
aI0
aI0
aI0
aI0
aI0
aI0
aI0
aI0
aI0
aI0
aI0
aI0
aI1
aI0
aI0
aI0
aI0
aI0
aI1
aI0
aI0
aI0
aI0
aI0
aI0
aI0
aI0
aI0
aI0
aI0
aI0
aI0
aI0
aI0
aI0
aI0
aI0
aI0
aI0
aI0
aI0
aI0
aI0
aI0
aI0
aI0
aI0
aI0
asg9
(lp94
sg11
I00
sg12
I2
sg13
I6464
sg14
Nsg15
I192
sba(iCollectionSetFactory
Collection
p95
(dp96
g7
(lp97
I0
aI0
aI0
aI0
aI0
aI0
aI0
aI0
aI0
aI0
aI0
aI0
aI0
aI0
aI0
aI0
aI0
aI0
aI0
aI0
aI0
aI0
aI0
aI0
aI0
aI0
aI0
aI0
aI0
aI0
aI0
aI0
aI0
aI0
aI0
aI0
aI0
aI1
aI0
aI0
aI0
aI0
aI0
aI0
aI0
aI0
aI0
aI0
aI0
aI0
aI0
aI0
aI0
aI0
aI0
aI0
aI0
aI0
aI0
aI0
aI0
aI0
aI0
aI0
aI0
aI0
aI0
aI0
aI0
aI0
aI0
aI0
aI0
aI0
aI0
aI0
aI0
aI0
aI0
aI0
aI0
aI0
aI0
aI0
aI1
aI0
aI0
aI1
aI0
aI0
aI0
aI0
aI0
aI0
aI0
aI0
aI0
aI0
aI0
aI0
aI0
aI0
aI0
aI0
aI0
aI0
aI0
aI0
aI0
aI0
aI0
aI0
aI0
aI0
aI0
aI0
aI0
aI0
aI0
aI0
asg9
(lp98
sg11
I00
sg12
I2
sg13
I5420
sg14
Nsg15
I18
sbaa(lp99
(iCollectionSetFactory
Collection
p100
(dp101
g7
(lp102
I0
aI0
aI0
aI0
aI0
aI0
aI0
aI0
aI0
aI0
aI0
aI0
aI0
aI0
aI0
aI0
aI0
aI0
aI0
aI0
aI0
aI0
aI0
aI0
aI0
aI0
aI0
aI0
aI0
aI0
aI0
aI0
aI0
aI0
aI1
aI0
aI0
aI0
aI0
aI0
aI0
aI0
aI0
aI0
aI0
aI0
aI0
aI0
aI0
aI0
aI0
aI0
aI0
aI0
aI0
aI0
aI0
aI0
aI0
aI0
aI0
aI0
aI0
aI0
aI0
aI0
aI0
aI0
aI0
aI0
aI0
aI0
aI0
aI0
aI0
aI0
aI0
aI0
aI0
aI0
aI0
aI0
aI0
aI0
aI1
aI0
aI0
aI1
aI0
aI0
aI1
aI0
aI0
aI0
aI0
aI0
aI0
aI0
aI0
aI0
aI0
aI0
aI0
aI0
aI0
aI0
aI0
aI0
aI0
aI0
aI0
aI0
aI0
aI0
aI0
aI0
aI0
aI0
aI0
aI0
asg9
(lp103
(iCollectionSetFactory
CollectionLink
p104
(dp105
g47
Nsg48
g75
sg49
g50
sg51
Nsba(iCollectionSetFactory
CollectionLink
p106
(dp107
g47
Nsg48
g24
sg49
g50
sg51
Nsbasg11
I00
sg12
I0
sg13
I7288
sg14
F6096.0
sg15
I1016
sba(iCollectionSetFactory
Collection
p108
(dp109
g7
(lp110
I0
aI0
aI0
aI0
aI0
aI0
aI0
aI0
aI0
aI0
aI0
aI0
aI0
aI0
aI0
aI0
aI0
aI0
aI0
aI0
aI0
aI0
aI0
aI0
aI0
aI0
aI0
aI0
aI0
aI0
aI0
aI0
aI0
aI0
aI1
aI1
aI0
aI0
aI0
aI0
aI0
aI0
aI0
aI0
aI0
aI0
aI0
aI0
aI0
aI0
aI0
aI0
aI0
aI0
aI0
aI0
aI0
aI0
aI0
aI0
aI0
aI0
aI0
aI0
aI0
aI0
aI0
aI0
aI0
aI0
aI0
aI0
aI0
aI0
aI0
aI0
aI0
aI0
aI0
aI0
aI0
aI0
aI0
aI0
aI1
aI0
aI0
aI1
aI0
aI0
aI0
aI0
aI0
aI0
aI0
aI0
aI0
aI0
aI0
aI0
aI0
aI0
aI0
aI0
aI0
aI0
aI0
aI0
aI0
aI0
aI0
aI0
aI0
aI0
aI0
aI0
aI0
aI0
aI0
aI0
asg9
(lp111
sg11
I00
sg12
I2
sg13
I6602
sg14
Nsg15
I330
sba(iCollectionSetFactory
Collection
p112
(dp113
g7
(lp114
I0
aI0
aI0
aI0
aI0
aI0
aI0
aI0
aI0
aI0
aI0
aI0
aI0
aI0
aI0
aI0
aI0
aI0
aI0
aI0
aI0
aI0
aI0
aI0
aI0
aI0
aI0
aI0
aI0
aI0
aI0
aI0
aI0
aI0
aI1
aI0
aI0
aI1
aI0
aI0
aI0
aI0
aI0
aI0
aI0
aI0
aI0
aI0
aI0
aI0
aI0
aI0
aI0
aI0
aI0
aI0
aI0
aI0
aI0
aI0
aI0
aI0
aI0
aI0
aI0
aI0
aI0
aI0
aI0
aI0
aI0
aI0
aI0
aI0
aI0
aI0
aI0
aI0
aI0
aI0
aI0
aI0
aI0
aI0
aI1
aI0
aI0
aI1
aI0
aI0
aI0
aI0
aI0
aI0
aI0
aI0
aI0
aI0
aI0
aI0
aI0
aI0
aI0
aI0
aI0
aI0
aI0
aI0
aI0
aI0
aI0
aI0
aI0
aI0
aI0
aI0
aI0
aI0
aI0
aI0
asg9
(lp115
sg11
I01
sg12
I2
sg13
I5402
sg14
Nsg15
I5402
sbaa(lp116
(iCollectionSetFactory
Collection
p117
(dp118
g7
(lp119
I0
aI0
aI0
aI0
aI0
aI0
aI0
aI0
aI0
aI0
aI0
aI0
aI0
aI0
aI0
aI0
aI0
aI0
aI0
aI0
aI0
aI0
aI0
aI0
aI0
aI0
aI0
aI0
aI0
aI0
aI0
aI0
aI0
aI0
aI1
aI1
aI0
aI0
aI0
aI0
aI0
aI0
aI0
aI0
aI0
aI0
aI0
aI0
aI0
aI0
aI0
aI0
aI0
aI0
aI0
aI0
aI0
aI0
aI0
aI0
aI0
aI0
aI0
aI0
aI0
aI0
aI0
aI0
aI0
aI0
aI0
aI0
aI0
aI0
aI0
aI0
aI0
aI0
aI0
aI0
aI0
aI0
aI0
aI0
aI1
aI0
aI0
aI1
aI0
aI0
aI1
aI0
aI0
aI0
aI0
aI0
aI0
aI0
aI0
aI0
aI0
aI0
aI0
aI0
aI0
aI0
aI0
aI0
aI0
aI0
aI0
aI0
aI0
aI0
aI0
aI0
aI0
aI0
aI0
aI0
asg9
(lp120
(iCollectionSetFactory
CollectionLink
p121
(dp122
g47
Nsg48
g100
sg49
g50
sg51
Nsba(iCollectionSetFactory
CollectionLink
p123
(dp124
g47
Nsg48
g28
sg49
g50
sg51
Nsbasg11
I01
sg12
I0
sg13
I6272
sg14
F62720.0
sg15
I6272
sbaasS'IRPcalculated'
p125
I01
sS'min_rel_sup'
p126
F0.6154603643525357
sS'supportsCalculated'
p127
I01
sS'totalBoundAddedValue'
p128
I8124
sS'totalBoundAddedValueCalculated'
p129
I01
sS'maximalsFlagged'
p130
I01
sS'totalIRP'
p131
F70688.0
sS'addedValuesCalculated'
p132
I01
sS'maximals'
p133
(lp134
g117
ag112
ag70
asS'treeStrat'
p135
I1
sS'totalAddedValue'
p136
I19852
sS'treeBuilt'
p137
I01
sS'totalAddedValueNoSingletons'
p138
I19652
sS'totalAddedValueCalculated'
p139
I01
sS'min_abs_sup'
p140
I5000
sS'attributes'
p141
(lp142
S'edible?:edible'
p143
aS'edible?:poisonous'
p144
aS'cap-shape:bell'
p145
aS'cap-shape:conical'
p146
aS'cap-shape:flat'
p147
aS'cap-shape:knobbed'
p148
aS'cap-shape:sunken'
p149
aS'cap-shape:convex'
p150
aS'cap-surface:fibrous'
p151
aS'cap-surface:grooves'
p152
aS'cap-surface:smooth'
p153
aS'cap-surface:scaly'
p154
aS'cap-color:buff'
p155
aS'cap-color:cinnamon'
p156
aS'cap-color:red'
p157
aS'cap-color:gray'
p158
aS'cap-color:brown'
p159
aS'cap-color:pink'
p160
aS'cap-color:green'
p161
aS'cap-color:purple'
p162
aS'cap-color:white'
p163
aS'cap-color:yellow'
p164
aS'bruises?:no'
p165
aS'bruises?:bruises'
p166
aS'odor:almond'
p167
aS'odor:creosote'
p168
aS'odor:foul'
p169
aS'odor:anise'
p170
aS'odor:musty'
p171
aS'odor:none'
p172
aS'odor:pungent'
p173
aS'odor:spicy'
p174
aS'odor:fishy'
p175
aS'gill-attachment:attached'
p176
aS'gill-attachment:free'
p177
aS'gill-spacing:close'
p178
aS'gill-spacing:crowded'
p179
aS'gill-size:broad'
p180
aS'gill-size:narrow'
p181
aS'gill-color:buff'
p182
aS'gill-color:red'
p183
aS'gill-color:gray'
p184
aS'gill-color:chocolate'
p185
aS'gill-color:black'
p186
aS'gill-color:brown'
p187
aS'gill-color:orange'
p188
aS'gill-color:pink'
p189
aS'gill-color:green'
p190
aS'gill-color:purple'
p191
aS'gill-color:white'
p192
aS'gill-color:yellow'
p193
aS'stalk-shape:enlarging'
p194
aS'stalk-shape:tapering'
p195
aS'stalk-root:!!!missing!!!'
p196
aS'stalk-root:bulbous'
p197
aS'stalk-root:club'
p198
aS'stalk-root:equal'
p199
aS'stalk-root:rooted'
p200
aS'stalk-surface-above-ring:fibrous'
p201
aS'stalk-surface-above-ring:silky'
p202
aS'stalk-surface-above-ring:smooth'
p203
aS'stalk-surface-above-ring:scaly'
p204
aS'stalk-surface-below-ring:fibrous'
p205
aS'stalk-surface-below-ring:silky'
p206
aS'stalk-surface-below-ring:smooth'
p207
aS'stalk-surface-below-ring:scaly'
p208
aS'stalk-color-above-ring:buff'
p209
aS'stalk-color-above-ring:cinnamon'
p210
aS'stalk-color-above-ring:red'
p211
aS'stalk-color-above-ring:gray'
p212
aS'stalk-color-above-ring:brown'
p213
aS'stalk-color-above-ring:orange'
p214
aS'stalk-color-above-ring:pink'
p215
aS'stalk-color-above-ring:white'
p216
aS'stalk-color-above-ring:yellow'
p217
aS'stalk-color-below-ring:buff'
p218
aS'stalk-color-below-ring:cinnamon'
p219
aS'stalk-color-below-ring:red'
p220
aS'stalk-color-below-ring:gray'
p221
aS'stalk-color-below-ring:brown'
p222
aS'stalk-color-below-ring:orange'
p223
aS'stalk-color-below-ring:pink'
p224
aS'stalk-color-below-ring:white'
p225
aS'stalk-color-below-ring:yellow'
p226
aS'veil-type:partial'
p227
aS'veil-color:brown'
p228
aS'veil-color:orange'
p229
aS'veil-color:white'
p230
aS'veil-color:yellow'
p231
aS'ring-number:none'
p232
aS'ring-number:one'
p233
aS'ring-number:two'
p234
aS'ring-type:evanescent'
p235
aS'ring-type:flaring'
p236
aS'ring-type:large'
p237
aS'ring-type:none'
p238
aS'ring-type:pendant'
p239
aS'spore-print-color:buff'
p240
aS'spore-print-color:chocolate'
p241
aS'spore-print-color:black'
p242
aS'spore-print-color:brown'
p243
aS'spore-print-color:orange'
p244
aS'spore-print-color:green'
p245
aS'spore-print-color:purple'
p246
aS'spore-print-color:white'
p247
aS'spore-print-color:yellow'
p248
aS'population:abundant'
p249
aS'population:clustered'
p250
aS'population:numerous'
p251
aS'population:scattered'
p252
aS'population:several'
p253
aS'population:solitary'
p254
aS'habitat:woods'
p255
aS'habitat:grasses'
p256
aS'habitat:leaves'
p257
aS'habitat:meadows'
p258
aS'habitat:paths'
p259
aS'habitat:urban'
p260
aS'habitat:waste'
p261
aS'Generic_Fake_Class'
p262
asS'transactionsTotal'
p263
I8124
sS'totalBoundAddedValueNoSingletons'
p264
I7924
sS'collectionsClosed'
p265
I01
sb.