(iCollectionSetFactory
LayeredCollectionSet
p0
(dp1
S'layers'
p2
(lp3
(lp4
(iCollectionSetFactory
Collection
p5
(dp6
S'elements'
p7
(lp8
I0
aI0
aI0
aI0
aI0
aI1
aI0
aI0
aI0
aI0
aI0
aI0
aI0
aI0
aI0
asS'links'
p9
(lp10
sS'isMaximal'
p11
I00
sS'boundness'
p12
I0
sS'support'
p13
I303
sS'IRP'
p14
NsS'added_value'
p15
I130
sba(iCollectionSetFactory
Collection
p16
(dp17
g7
(lp18
I0
aI0
aI0
aI0
aI0
aI0
aI1
aI0
aI0
aI0
aI0
aI0
aI0
aI0
aI0
asg9
(lp19
sg11
I00
sg12
I0
sg13
I302
sg14
Nsg15
I129
sba(iCollectionSetFactory
Collection
p20
(dp21
g7
(lp22
I0
aI0
aI0
aI0
aI0
aI0
aI0
aI0
aI0
aI0
aI1
aI0
aI0
aI0
aI0
asg9
(lp23
sg11
I00
sg12
I0
sg13
I299
sg14
Nsg15
I154
sba(iCollectionSetFactory
Collection
p24
(dp25
g7
(lp26
I0
aI0
aI0
aI0
aI1
aI0
aI0
aI0
aI0
aI0
aI0
aI0
aI0
aI0
aI0
asg9
(lp27
sg11
I00
sg12
I0
sg13
I293
sg14
Nsg15
I123
sba(iCollectionSetFactory
Collection
p28
(dp29
g7
(lp30
I0
aI0
aI0
aI0
aI0
aI0
aI0
aI1
aI0
aI0
aI0
aI0
aI0
aI0
aI0
asg9
(lp31
sg11
I00
sg12
I0
sg13
I292
sg14
Nsg15
I147
sba(iCollectionSetFactory
Collection
p32
(dp33
g7
(lp34
I0
aI0
aI0
aI0
aI0
aI0
aI0
aI0
aI1
aI0
aI0
aI0
aI0
aI0
aI0
asg9
(lp35
sg11
I00
sg12
I0
sg13
I287
sg14
Nsg15
I143
sba(iCollectionSetFactory
Collection
p36
(dp37
g7
(lp38
I0
aI0
aI0
aI1
aI0
aI0
aI0
aI0
aI0
aI0
aI0
aI0
aI0
aI0
aI0
asg9
(lp39
sg11
I00
sg12
I0
sg13
I275
sg14
Nsg15
I131
sba(iCollectionSetFactory
Collection
p40
(dp41
g7
(lp42
I0
aI0
aI0
aI0
aI0
aI0
aI0
aI0
aI0
aI0
aI0
aI1
aI0
aI0
aI0
asg9
(lp43
sg11
I00
sg12
I0
sg13
I204
sg14
Nsg15
I129
sba(iCollectionSetFactory
Collection
p44
(dp45
g7
(lp46
I0
aI0
aI0
aI0
aI0
aI0
aI0
aI0
aI0
aI1
aI0
aI0
aI0
aI0
aI0
asg9
(lp47
sg11
I00
sg12
I0
sg13
I184
sg14
Nsg15
I121
sba(iCollectionSetFactory
Collection
p48
(dp49
g7
(lp50
I0
aI1
aI0
aI0
aI0
aI0
aI0
aI0
aI0
aI0
aI0
aI0
aI0
aI0
aI0
asg9
(lp51
sg11
I00
sg12
I0
sg13
I183
sg14
Nsg15
I124
sba(iCollectionSetFactory
Collection
p52
(dp53
g7
(lp54
I1
aI0
aI0
aI0
aI0
aI0
aI0
aI0
aI0
aI0
aI0
aI0
aI0
aI0
aI0
asg9
(lp55
sg11
I00
sg12
I0
sg13
I177
sg14
Nsg15
I115
sba(iCollectionSetFactory
Collection
p56
(dp57
g7
(lp58
I0
aI0
aI0
aI0
aI0
aI0
aI0
aI0
aI0
aI0
aI0
aI0
aI0
aI1
aI0
asg9
(lp59
sg11
I00
sg12
I2
sg13
I2
sg14
Nsg15
I0
sba(iCollectionSetFactory
Collection
p60
(dp61
g7
(lp62
I0
aI0
aI0
aI0
aI0
aI0
aI0
aI0
aI0
aI0
aI0
aI0
aI1
aI0
aI0
asg9
(lp63
sg11
I00
sg12
I2
sg13
I2
sg14
Nsg15
I0
sba(iCollectionSetFactory
Collection
p64
(dp65
g7
(lp66
I0
aI0
aI1
aI0
aI0
aI0
aI0
aI0
aI0
aI0
aI0
aI0
aI0
aI0
aI0
asg9
(lp67
sg11
I00
sg12
I2
sg13
I1
sg14
Nsg15
I0
sbaa(lp68
(iCollectionSetFactory
Collection
p69
(dp70
g7
(lp71
I0
aI0
aI0
aI0
aI0
aI1
aI1
aI0
aI0
aI0
aI0
aI0
aI0
aI0
aI0
asg9
(lp72
(iCollectionSetFactory
CollectionLink
p73
(dp74
S'source'
p75
NsS'destination'
p76
g5
sS'type'
p77
S'child'
p78
sS'measure'
p79
Nsba(iCollectionSetFactory
CollectionLink
p80
(dp81
g75
Nsg76
g16
sg77
g78
sg79
Nsbasg11
I00
sg12
I0
sg13
I173
sg14
F137.0
sg15
I27
sba(iCollectionSetFactory
Collection
p82
(dp83
g7
(lp84
I0
aI0
aI0
aI0
aI1
aI0
aI1
aI0
aI0
aI0
aI0
aI0
aI0
aI0
aI0
asg9
(lp85
sg11
I00
sg12
I2
sg13
I170
sg14
Nsg15
I24
sba(iCollectionSetFactory
Collection
p86
(dp87
g7
(lp88
I0
aI0
aI0
aI0
aI1
aI1
aI0
aI0
aI0
aI0
aI0
aI0
aI0
aI0
aI0
asg9
(lp89
sg11
I00
sg12
I2
sg13
I167
sg14
Nsg15
I21
sba(iCollectionSetFactory
Collection
p90
(dp91
g7
(lp92
I0
aI0
aI0
aI0
aI0
aI0
aI0
aI1
aI0
aI0
aI1
aI0
aI0
aI0
aI0
asg9
(lp93
(iCollectionSetFactory
CollectionLink
p94
(dp95
g75
Nsg76
g20
sg77
g78
sg79
Nsba(iCollectionSetFactory
CollectionLink
p96
(dp97
g75
Nsg76
g28
sg77
g78
sg79
Nsbasg11
I00
sg12
I0
sg13
I145
sg14
F111.0
sg15
I96
sba(iCollectionSetFactory
Collection
p98
(dp99
g7
(lp100
I0
aI0
aI0
aI1
aI0
aI0
aI0
aI0
aI1
aI0
aI0
aI0
aI0
aI0
aI0
asg9
(lp101
(iCollectionSetFactory
CollectionLink
p102
(dp103
g75
Nsg76
g32
sg77
g78
sg79
Nsba(iCollectionSetFactory
CollectionLink
p104
(dp105
g75
Nsg76
g36
sg77
g78
sg79
Nsbasg11
I00
sg12
I0
sg13
I144
sg14
F139.0
sg15
I100
sba(iCollectionSetFactory
Collection
p106
(dp107
g7
(lp108
I0
aI0
aI0
aI0
aI0
aI1
aI0
aI0
aI1
aI0
aI0
aI0
aI0
aI0
aI0
asg9
(lp109
sg11
I00
sg12
I2
sg13
I97
sg14
Nsg15
I53
sba(iCollectionSetFactory
Collection
p110
(dp111
g7
(lp112
I0
aI0
aI0
aI0
aI0
aI0
aI1
aI1
aI0
aI0
aI0
aI0
aI0
aI0
aI0
asg9
(lp113
sg11
I00
sg12
I2
sg13
I90
sg14
Nsg15
I39
sba(iCollectionSetFactory
Collection
p114
(dp115
g7
(lp116
I0
aI0
aI0
aI0
aI0
aI1
aI0
aI1
aI0
aI0
aI0
aI0
aI0
aI0
aI0
asg9
(lp117
sg11
I00
sg12
I2
sg13
I89
sg14
Nsg15
I38
sba(iCollectionSetFactory
Collection
p118
(dp119
g7
(lp120
I0
aI0
aI0
aI0
aI1
aI0
aI0
aI0
aI0
aI0
aI1
aI0
aI0
aI0
aI0
asg9
(lp121
sg11
I00
sg12
I2
sg13
I89
sg14
Nsg15
I40
sba(iCollectionSetFactory
Collection
p122
(dp123
g7
(lp124
I0
aI0
aI0
aI0
aI0
aI0
aI1
aI0
aI0
aI0
aI1
aI0
aI0
aI0
aI0
asg9
(lp125
sg11
I00
sg12
I2
sg13
I86
sg14
Nsg15
I39
sba(iCollectionSetFactory
Collection
p126
(dp127
g7
(lp128
I0
aI0
aI0
aI0
aI0
aI1
aI0
aI0
aI0
aI0
aI1
aI0
aI0
aI0
aI0
asg9
(lp129
sg11
I00
sg12
I2
sg13
I86
sg14
Nsg15
I40
sba(iCollectionSetFactory
Collection
p130
(dp131
g7
(lp132
I0
aI0
aI0
aI1
aI0
aI0
aI0
aI1
aI0
aI0
aI0
aI0
aI0
aI0
aI0
asg9
(lp133
sg11
I00
sg12
I2
sg13
I86
sg14
Nsg15
I43
sba(iCollectionSetFactory
Collection
p134
(dp135
g7
(lp136
I0
aI0
aI0
aI0
aI1
aI0
aI0
aI1
aI0
aI0
aI0
aI0
aI0
aI0
aI0
asg9
(lp137
sg11
I00
sg12
I2
sg13
I85
sg14
Nsg15
I35
sba(iCollectionSetFactory
Collection
p138
(dp139
g7
(lp140
I0
aI0
aI0
aI0
aI0
aI0
aI0
aI0
aI1
aI0
aI1
aI0
aI0
aI0
aI0
asg9
(lp141
sg11
I00
sg12
I2
sg13
I84
sg14
Nsg15
I40
sba(iCollectionSetFactory
Collection
p142
(dp143
g7
(lp144
I0
aI0
aI0
aI1
aI0
aI0
aI0
aI0
aI0
aI0
aI1
aI0
aI0
aI0
aI0
asg9
(lp145
sg11
I00
sg12
I2
sg13
I82
sg14
Nsg15
I38
sba(iCollectionSetFactory
Collection
p146
(dp147
g7
(lp148
I0
aI0
aI0
aI0
aI0
aI0
aI0
aI1
aI1
aI0
aI0
aI0
aI0
aI0
aI0
asg9
(lp149
sg11
I00
sg12
I2
sg13
I78
sg14
Nsg15
I35
sba(iCollectionSetFactory
Collection
p150
(dp151
g7
(lp152
I0
aI0
aI0
aI0
aI1
aI0
aI0
aI0
aI1
aI0
aI0
aI0
aI0
aI0
aI0
asg9
(lp153
sg11
I00
sg12
I2
sg13
I77
sg14
Nsg15
I33
sba(iCollectionSetFactory
Collection
p154
(dp155
g7
(lp156
I0
aI0
aI0
aI0
aI0
aI0
aI1
aI0
aI0
aI0
aI0
aI1
aI0
aI0
aI0
asg9
(lp157
sg11
I00
sg12
I2
sg13
I75
sg14
Nsg15
I31
sba(iCollectionSetFactory
Collection
p158
(dp159
g7
(lp160
I0
aI0
aI0
aI0
aI0
aI1
aI0
aI0
aI0
aI0
aI0
aI1
aI0
aI0
aI0
asg9
(lp161
sg11
I00
sg12
I2
sg13
I73
sg14
Nsg15
I29
sba(iCollectionSetFactory
Collection
p162
(dp163
g7
(lp164
I0
aI0
aI0
aI0
aI0
aI0
aI1
aI0
aI1
aI0
aI0
aI0
aI0
aI0
aI0
asg9
(lp165
sg11
I00
sg12
I2
sg13
I71
sg14
Nsg15
I28
sba(iCollectionSetFactory
Collection
p166
(dp167
g7
(lp168
I0
aI0
aI0
aI1
aI0
aI1
aI0
aI0
aI0
aI0
aI0
aI0
aI0
aI0
aI0
asg9
(lp169
sg11
I00
sg12
I2
sg13
I71
sg14
Nsg15
I41
sba(iCollectionSetFactory
Collection
p170
(dp171
g7
(lp172
I0
aI0
aI0
aI1
aI0
aI0
aI1
aI0
aI0
aI0
aI0
aI0
aI0
aI0
aI0
asg9
(lp173
sg11
I00
sg12
I2
sg13
I66
sg14
Nsg15
I32
sba(iCollectionSetFactory
Collection
p174
(dp175
g7
(lp176
I0
aI0
aI0
aI1
aI1
aI0
aI0
aI0
aI0
aI0
aI0
aI0
aI0
aI0
aI0
asg9
(lp177
sg11
I00
sg12
I2
sg13
I64
sg14
Nsg15
I30
sba(iCollectionSetFactory
Collection
p178
(dp179
g7
(lp180
I0
aI0
aI0
aI0
aI0
aI0
aI0
aI1
aI0
aI0
aI0
aI1
aI0
aI0
aI0
asg9
(lp181
sg11
I00
sg12
I2
sg13
I63
sg14
Nsg15
I32
sba(iCollectionSetFactory
Collection
p182
(dp183
g7
(lp184
I0
aI0
aI0
aI0
aI0
aI1
aI0
aI0
aI0
aI1
aI0
aI0
aI0
aI0
aI0
asg9
(lp185
sg11
I00
sg12
I2
sg13
I63
sg14
Nsg15
I30
sba(iCollectionSetFactory
Collection
p186
(dp187
g7
(lp188
I1
aI0
aI0
aI0
aI0
aI0
aI0
aI0
aI0
aI0
aI1
aI0
aI0
aI0
aI0
asg9
(lp189
sg11
I00
sg12
I2
sg13
I62
sg14
Nsg15
I28
sba(iCollectionSetFactory
Collection
p190
(dp191
g7
(lp192
I0
aI0
aI0
aI0
aI0
aI0
aI0
aI0
aI0
aI0
aI1
aI1
aI0
aI0
aI0
asg9
(lp193
sg11
I00
sg12
I2
sg13
I61
sg14
Nsg15
I30
sba(iCollectionSetFactory
Collection
p194
(dp195
g7
(lp196
I0
aI0
aI0
aI0
aI0
aI0
aI0
aI0
aI1
aI1
aI0
aI0
aI0
aI0
aI0
asg9
(lp197
sg11
I00
sg12
I2
sg13
I60
sg14
Nsg15
I30
sba(iCollectionSetFactory
Collection
p198
(dp199
g7
(lp200
I0
aI0
aI0
aI0
aI1
aI0
aI0
aI0
aI0
aI0
aI0
aI1
aI0
aI0
aI0
asg9
(lp201
(iCollectionSetFactory
CollectionLink
p202
(dp203
g75
Nsg76
g24
sg77
g78
sg79
Nsba(iCollectionSetFactory
CollectionLink
p204
(dp205
g75
Nsg76
g40
sg77
g78
sg79
Nsbasg11
I00
sg12
I0
sg13
I60
sg14
F24.0
sg15
I19
sba(iCollectionSetFactory
Collection
p206
(dp207
g7
(lp208
I0
aI1
aI0
aI0
aI0
aI0
aI0
aI0
aI0
aI0
aI1
aI0
aI0
aI0
aI0
asg9
(lp209
sg11
I00
sg12
I2
sg13
I59
sg14
Nsg15
I32
sba(iCollectionSetFactory
Collection
p210
(dp211
g7
(lp212
I0
aI0
aI0
aI0
aI0
aI0
aI0
aI0
aI0
aI1
aI1
aI0
aI0
aI0
aI0
asg9
(lp213
sg11
I00
sg12
I2
sg13
I56
sg14
Nsg15
I27
sba(iCollectionSetFactory
Collection
p214
(dp215
g7
(lp216
I1
aI0
aI0
aI0
aI0
aI0
aI0
aI1
aI0
aI0
aI0
aI0
aI0
aI0
aI0
asg9
(lp217
sg11
I00
sg12
I2
sg13
I56
sg14
Nsg15
I22
sba(iCollectionSetFactory
Collection
p218
(dp219
g7
(lp220
I0
aI1
aI0
aI0
aI0
aI1
aI0
aI0
aI0
aI0
aI0
aI0
aI0
aI0
aI0
asg9
(lp221
sg11
I00
sg12
I2
sg13
I55
sg14
Nsg15
I22
sba(iCollectionSetFactory
Collection
p222
(dp223
g7
(lp224
I1
aI0
aI0
aI1
aI0
aI0
aI0
aI0
aI0
aI0
aI0
aI0
aI0
aI0
aI0
asg9
(lp225
sg11
I00
sg12
I2
sg13
I55
sg14
Nsg15
I27
sba(iCollectionSetFactory
Collection
p226
(dp227
g7
(lp228
I0
aI0
aI0
aI0
aI0
aI0
aI0
aI0
aI1
aI0
aI0
aI1
aI0
aI0
aI0
asg9
(lp229
sg11
I00
sg12
I2
sg13
I54
sg14
Nsg15
I25
sba(iCollectionSetFactory
Collection
p230
(dp231
g7
(lp232
I0
aI0
aI0
aI0
aI0
aI0
aI1
aI0
aI0
aI1
aI0
aI0
aI0
aI0
aI0
asg9
(lp233
sg11
I00
sg12
I2
sg13
I54
sg14
Nsg15
I21
sba(iCollectionSetFactory
Collection
p234
(dp235
g7
(lp236
I0
aI0
aI0
aI1
aI0
aI0
aI0
aI0
aI0
aI0
aI0
aI1
aI0
aI0
aI0
asg9
(lp237
sg11
I00
sg12
I2
sg13
I54
sg14
Nsg15
I25
sba(iCollectionSetFactory
Collection
p238
(dp239
g7
(lp240
I0
aI1
aI0
aI1
aI0
aI0
aI0
aI0
aI0
aI0
aI0
aI0
aI0
aI0
aI0
asg9
(lp241
sg11
I00
sg12
I2
sg13
I53
sg14
Nsg15
I30
sba(iCollectionSetFactory
Collection
p242
(dp243
g7
(lp244
I0
aI0
aI0
aI0
aI0
aI0
aI0
aI1
aI0
aI1
aI0
aI0
aI0
aI0
aI0
asg9
(lp245
sg11
I00
sg12
I2
sg13
I52
sg14
Nsg15
I23
sba(iCollectionSetFactory
Collection
p246
(dp247
g7
(lp248
I0
aI0
aI0
aI1
aI0
aI0
aI0
aI0
aI0
aI1
aI0
aI0
aI0
aI0
aI0
asg9
(lp249
sg11
I00
sg12
I2
sg13
I52
sg14
Nsg15
I22
sba(iCollectionSetFactory
Collection
p250
(dp251
g7
(lp252
I0
aI1
aI0
aI0
aI0
aI0
aI1
aI0
aI0
aI0
aI0
aI0
aI0
aI0
aI0
asg9
(lp253
sg11
I00
sg12
I2
sg13
I52
sg14
Nsg15
I19
sba(iCollectionSetFactory
Collection
p254
(dp255
g7
(lp256
I1
aI0
aI0
aI0
aI0
aI0
aI1
aI0
aI0
aI0
aI0
aI0
aI0
aI0
aI0
asg9
(lp257
sg11
I00
sg12
I2
sg13
I51
sg14
Nsg15
I22
sba(iCollectionSetFactory
Collection
p258
(dp259
g7
(lp260
I0
aI1
aI0
aI0
aI0
aI0
aI0
aI0
aI1
aI0
aI0
aI0
aI0
aI0
aI0
asg9
(lp261
sg11
I00
sg12
I2
sg13
I49
sg14
Nsg15
I26
sba(iCollectionSetFactory
Collection
p262
(dp263
g7
(lp264
I0
aI1
aI0
aI0
aI0
aI0
aI0
aI1
aI0
aI0
aI0
aI0
aI0
aI0
aI0
asg9
(lp265
sg11
I00
sg12
I2
sg13
I48
sg14
Nsg15
I21
sba(iCollectionSetFactory
Collection
p266
(dp267
g7
(lp268
I0
aI1
aI0
aI0
aI1
aI0
aI0
aI0
aI0
aI0
aI0
aI0
aI0
aI0
aI0
asg9
(lp269
sg11
I00
sg12
I2
sg13
I47
sg14
Nsg15
I16
sba(iCollectionSetFactory
Collection
p270
(dp271
g7
(lp272
I1
aI0
aI0
aI0
aI0
aI0
aI0
aI0
aI1
aI0
aI0
aI0
aI0
aI0
aI0
asg9
(lp273
sg11
I00
sg12
I2
sg13
I46
sg14
Nsg15
I18
sba(iCollectionSetFactory
Collection
p274
(dp275
g7
(lp276
I0
aI0
aI0
aI0
aI1
aI0
aI0
aI0
aI0
aI1
aI0
aI0
aI0
aI0
aI0
asg9
(lp277
sg11
I00
sg12
I2
sg13
I45
sg14
Nsg15
I16
sba(iCollectionSetFactory
Collection
p278
(dp279
g7
(lp280
I1
aI0
aI0
aI0
aI1
aI0
aI0
aI0
aI0
aI0
aI0
aI0
aI0
aI0
aI0
asg9
(lp281
sg11
I00
sg12
I2
sg13
I45
sg14
Nsg15
I16
sba(iCollectionSetFactory
Collection
p282
(dp283
g7
(lp284
I1
aI0
aI0
aI0
aI0
aI1
aI0
aI0
aI0
aI0
aI0
aI0
aI0
aI0
aI0
asg9
(lp285
sg11
I00
sg12
I2
sg13
I44
sg14
Nsg15
I21
sba(iCollectionSetFactory
Collection
p286
(dp287
g7
(lp288
I0
aI0
aI0
aI0
aI0
aI0
aI0
aI0
aI0
aI1
aI0
aI1
aI0
aI0
aI0
asg9
(lp289
sg11
I00
sg12
I2
sg13
I42
sg14
Nsg15
I22
sba(iCollectionSetFactory
Collection
p290
(dp291
g7
(lp292
I0
aI1
aI0
aI0
aI0
aI0
aI0
aI0
aI0
aI1
aI0
aI0
aI0
aI0
aI0
asg9
(lp293
(iCollectionSetFactory
CollectionLink
p294
(dp295
g75
Nsg76
g44
sg77
g78
sg79
Nsba(iCollectionSetFactory
CollectionLink
p296
(dp297
g75
Nsg76
g48
sg77
g78
sg79
Nsbasg11
I00
sg12
I0
sg13
I42
sg14
F37.0
sg15
I24
sba(iCollectionSetFactory
Collection
p298
(dp299
g7
(lp300
I0
aI1
aI0
aI0
aI0
aI0
aI0
aI0
aI0
aI0
aI0
aI1
aI0
aI0
aI0
asg9
(lp301
sg11
I00
sg12
I2
sg13
I41
sg14
Nsg15
I24
sba(iCollectionSetFactory
Collection
p302
(dp303
g7
(lp304
I1
aI0
aI0
aI0
aI0
aI0
aI0
aI0
aI0
aI1
aI0
aI0
aI0
aI0
aI0
asg9
(lp305
sg11
I00
sg12
I2
sg13
I35
sg14
Nsg15
I19
sba(iCollectionSetFactory
Collection
p306
(dp307
g7
(lp308
I1
aI1
aI0
aI0
aI0
aI0
aI0
aI0
aI0
aI0
aI0
aI0
aI0
aI0
aI0
asg9
(lp309
sg11
I00
sg12
I2
sg13
I33
sg14
Nsg15
I20
sba(iCollectionSetFactory
Collection
p310
(dp311
g7
(lp312
I1
aI0
aI0
aI0
aI0
aI0
aI0
aI0
aI0
aI0
aI0
aI1
aI0
aI0
aI0
asg9
(lp313
sg11
I00
sg12
I2
sg13
I31
sg14
Nsg15
I15
sba(iCollectionSetFactory
Collection
p314
(dp315
g7
(lp316
I0
aI0
aI0
aI0
aI0
aI0
aI0
aI0
aI1
aI0
aI0
aI0
aI0
aI1
aI0
asg9
(lp317
sg11
I00
sg12
I2
sg13
I2
sg14
Nsg15
I1
sba(iCollectionSetFactory
Collection
p318
(dp319
g7
(lp320
I0
aI0
aI0
aI0
aI0
aI0
aI0
aI0
aI1
aI0
aI0
aI0
aI1
aI0
aI0
asg9
(lp321
sg11
I00
sg12
I2
sg13
I2
sg14
Nsg15
I1
sbaa(lp322
(iCollectionSetFactory
Collection
p323
(dp324
g7
(lp325
I0
aI0
aI0
aI0
aI1
aI1
aI1
aI0
aI0
aI0
aI0
aI0
aI0
aI0
aI0
asg9
(lp326
sg11
I00
sg12
I2
sg13
I146
sg14
Nsg15
I102
sba(iCollectionSetFactory
Collection
p327
(dp328
g7
(lp329
I0
aI0
aI0
aI0
aI0
aI1
aI1
aI1
aI0
aI0
aI0
aI0
aI0
aI0
aI0
asg9
(lp330
sg11
I00
sg12
I2
sg13
I51
sg14
Nsg15
I7
sba(iCollectionSetFactory
Collection
p331
(dp332
g7
(lp333
I0
aI0
aI0
aI0
aI1
aI0
aI1
aI1
aI0
aI0
aI0
aI0
aI0
aI0
aI0
asg9
(lp334
sg11
I00
sg12
I2
sg13
I50
sg14
Nsg15
I6
sba(iCollectionSetFactory
Collection
p335
(dp336
g7
(lp337
I0
aI0
aI0
aI0
aI1
aI0
aI0
aI1
aI0
aI0
aI1
aI0
aI0
aI0
aI0
asg9
(lp338
sg11
I00
sg12
I2
sg13
I49
sg14
Nsg15
I23
sba(iCollectionSetFactory
Collection
p339
(dp340
g7
(lp341
I0
aI0
aI0
aI0
aI1
aI1
aI0
aI1
aI0
aI0
aI0
aI0
aI0
aI0
aI0
asg9
(lp342
sg11
I00
sg12
I2
sg13
I48
sg14
Nsg15
I4
sba(iCollectionSetFactory
Collection
p343
(dp344
g7
(lp345
I0
aI0
aI0
aI0
aI1
aI0
aI1
aI0
aI0
aI0
aI1
aI0
aI0
aI0
aI0
asg9
(lp346
sg11
I00
sg12
I2
sg13
I47
sg14
Nsg15
I7
sba(iCollectionSetFactory
Collection
p347
(dp348
g7
(lp349
I0
aI0
aI0
aI0
aI1
aI1
aI0
aI0
aI0
aI0
aI1
aI0
aI0
aI0
aI0
asg9
(lp350
sg11
I00
sg12
I2
sg13
I46
sg14
Nsg15
I6
sba(iCollectionSetFactory
Collection
p351
(dp352
g7
(lp353
I0
aI0
aI0
aI0
aI0
aI0
aI1
aI1
aI0
aI0
aI1
aI0
aI0
aI0
aI0
asg9
(lp354
sg11
I00
sg12
I2
sg13
I45
sg14
Nsg15
I19
sba(iCollectionSetFactory
Collection
p355
(dp356
g7
(lp357
I0
aI0
aI0
aI0
aI0
aI1
aI0
aI1
aI0
aI0
aI1
aI0
aI0
aI0
aI0
asg9
(lp358
sg11
I00
sg12
I2
sg13
I45
sg14
Nsg15
I20
sba(iCollectionSetFactory
Collection
p359
(dp360
g7
(lp361
I0
aI0
aI0
aI0
aI0
aI1
aI1
aI0
aI0
aI0
aI1
aI0
aI0
aI0
aI0
asg9
(lp362
sg11
I00
sg12
I2
sg13
I45
sg14
Nsg15
I5
sba(iCollectionSetFactory
Collection
p363
(dp364
g7
(lp365
I0
aI0
aI0
aI0
aI0
aI1
aI1
aI0
aI0
aI0
aI0
aI1
aI0
aI0
aI0
asg9
(lp366
sg11
I00
sg12
I2
sg13
I44
sg14
Nsg15
I8
sba(iCollectionSetFactory
Collection
p367
(dp368
g7
(lp369
I0
aI0
aI0
aI0
aI1
aI1
aI0
aI0
aI1
aI0
aI0
aI0
aI0
aI0
aI0
asg9
(lp370
sg11
I00
sg12
I2
sg13
I44
sg14
Nsg15
I8
sba(iCollectionSetFactory
Collection
p371
(dp372
g7
(lp373
I0
aI0
aI0
aI1
aI0
aI0
aI0
aI0
aI1
aI0
aI1
aI0
aI0
aI0
aI0
asg9
(lp374
sg11
I00
sg12
I2
sg13
I44
sg14
Nsg15
I23
sba(iCollectionSetFactory
Collection
p375
(dp376
g7
(lp377
I0
aI0
aI0
aI0
aI1
aI0
aI1
aI0
aI1
aI0
aI0
aI0
aI0
aI0
aI0
asg9
(lp378
sg11
I00
sg12
I2
sg13
I43
sg14
Nsg15
I7
sba(iCollectionSetFactory
Collection
p379
(dp380
g7
(lp381
I0
aI0
aI0
aI1
aI0
aI0
aI0
aI1
aI1
aI0
aI0
aI0
aI0
aI0
aI0
asg9
(lp382
sg11
I00
sg12
I2
sg13
I43
sg14
Nsg15
I22
sba(iCollectionSetFactory
Collection
p383
(dp384
g7
(lp385
I0
aI0
aI0
aI0
aI0
aI1
aI1
aI0
aI1
aI0
aI0
aI0
aI0
aI0
aI0
asg9
(lp386
sg11
I00
sg12
I2
sg13
I42
sg14
Nsg15
I6
sba(iCollectionSetFactory
Collection
p387
(dp388
g7
(lp389
I0
aI0
aI0
aI0
aI1
aI1
aI0
aI0
aI0
aI0
aI0
aI1
aI0
aI0
aI0
asg9
(lp390
sg11
I00
sg12
I2
sg13
I41
sg14
Nsg15
I5
sba(iCollectionSetFactory
Collection
p391
(dp392
g7
(lp393
I0
aI0
aI0
aI1
aI0
aI0
aI0
aI1
aI0
aI0
aI1
aI0
aI0
aI0
aI0
asg9
(lp394
sg11
I00
sg12
I2
sg13
I41
sg14
Nsg15
I20
sba(iCollectionSetFactory
Collection
p395
(dp396
g7
(lp397
I0
aI0
aI0
aI0
aI0
aI0
aI0
aI1
aI1
aI0
aI1
aI0
aI0
aI0
aI0
asg9
(lp398
sg11
I00
sg12
I2
sg13
I40
sg14
Nsg15
I19
sba(iCollectionSetFactory
Collection
p399
(dp400
g7
(lp401
I0
aI0
aI0
aI0
aI1
aI0
aI1
aI0
aI0
aI0
aI0
aI1
aI0
aI0
aI0
asg9
(lp402
sg11
I00
sg12
I2
sg13
I40
sg14
Nsg15
I4
sba(iCollectionSetFactory
Collection
p403
(dp404
g7
(lp405
I0
aI0
aI0
aI0
aI0
aI1
aI0
aI1
aI1
aI0
aI0
aI0
aI0
aI0
aI0
asg9
(lp406
sg11
I00
sg12
I2
sg13
I34
sg14
Nsg15
I16
sba(iCollectionSetFactory
Collection
p407
(dp408
g7
(lp409
I0
aI0
aI0
aI1
aI1
aI0
aI1
aI0
aI0
aI0
aI0
aI0
aI0
aI0
aI0
asg9
(lp410
sg11
I00
sg12
I2
sg13
I34
sg14
Nsg15
I8
sba(iCollectionSetFactory
Collection
p411
(dp412
g7
(lp413
I1
aI0
aI0
aI0
aI0
aI0
aI0
aI1
aI0
aI0
aI1
aI0
aI0
aI0
aI0
asg9
(lp414
(iCollectionSetFactory
CollectionLink
p415
(dp416
g75
Nsg76
g90
sg77
g78
sg79
Nsba(iCollectionSetFactory
CollectionLink
p417
(dp418
g75
Nsg76
g52
sg77
g78
sg79
Nsbasg11
I00
sg12
I0
sg13
I34
sg14
F102.0
sg15
I23
sba(iCollectionSetFactory
Collection
p419
(dp420
g7
(lp421
I0
aI0
aI0
aI0
aI0
aI1
aI1
aI0
aI0
aI1
aI0
aI0
aI0
aI0
aI0
asg9
(lp422
sg11
I00
sg12
I2
sg13
I33
sg14
Nsg15
I9
sba(iCollectionSetFactory
Collection
p423
(dp424
g7
(lp425
I0
aI1
aI0
aI0
aI0
aI1
aI1
aI0
aI0
aI0
aI0
aI0
aI0
aI0
aI0
asg9
(lp426
sg11
I00
sg12
I2
sg13
I33
sg14
Nsg15
I4
sba(iCollectionSetFactory
Collection
p427
(dp428
g7
(lp429
I0
aI0
aI0
aI0
aI0
aI0
aI0
aI1
aI0
aI0
aI1
aI1
aI0
aI0
aI0
asg9
(lp430
sg11
I00
sg12
I2
sg13
I31
sg14
Nsg15
I19
sba(iCollectionSetFactory
Collection
p431
(dp432
g7
(lp433
I0
aI1
aI0
aI0
aI1
aI1
aI0
aI0
aI0
aI0
aI0
aI0
aI0
aI0
aI0
asg9
(lp434
sg11
I00
sg12
I2
sg13
I31
sg14
Nsg15
I2
sba(iCollectionSetFactory
Collection
p435
(dp436
g7
(lp437
I0
aI0
aI0
aI0
aI1
aI0
aI0
aI0
aI1
aI0
aI1
aI0
aI0
aI0
aI0
asg9
(lp438
sg11
I00
sg12
I2
sg13
I30
sg14
Nsg15
I11
sba(iCollectionSetFactory
Collection
p439
(dp440
g7
(lp441
I0
aI0
aI0
aI1
aI0
aI0
aI0
aI0
aI1
aI1
aI0
aI0
aI0
aI0
aI0
asg9
(lp442
sg11
I00
sg12
I2
sg13
I30
sg14
Nsg15
I17
sba(iCollectionSetFactory
Collection
p443
(dp444
g7
(lp445
I0
aI0
aI0
aI1
aI0
aI1
aI1
aI0
aI0
aI0
aI0
aI0
aI0
aI0
aI0
asg9
(lp446
sg11
I00
sg12
I2
sg13
I30
sg14
Nsg15
I4
sba(iCollectionSetFactory
Collection
p447
(dp448
g7
(lp449
I0
aI0
aI0
aI1
aI1
aI1
aI0
aI0
aI0
aI0
aI0
aI0
aI0
aI0
aI0
asg9
(lp450
sg11
I00
sg12
I2
sg13
I30
sg14
Nsg15
I4
sba(iCollectionSetFactory
Collection
p451
(dp452
g7
(lp453
I0
aI1
aI0
aI0
aI1
aI0
aI1
aI0
aI0
aI0
aI0
aI0
aI0
aI0
aI0
asg9
(lp454
sg11
I00
sg12
I2
sg13
I30
sg14
Nsg15
I1
sba(iCollectionSetFactory
Collection
p455
(dp456
g7
(lp457
I0
aI0
aI0
aI0
aI0
aI0
aI0
aI1
aI0
aI1
aI1
aI0
aI0
aI0
aI0
asg9
(lp458
sg11
I00
sg12
I2
sg13
I29
sg14
Nsg15
I19
sba(iCollectionSetFactory
Collection
p459
(dp460
g7
(lp461
I0
aI0
aI0
aI0
aI0
aI1
aI0
aI0
aI1
aI0
aI1
aI0
aI0
aI0
aI0
asg9
(lp462
sg11
I00
sg12
I2
sg13
I29
sg14
Nsg15
I11
sba(iCollectionSetFactory
Collection
p463
(dp464
g7
(lp465
I0
aI0
aI0
aI0
aI1
aI1
aI0
aI0
aI0
aI1
aI0
aI0
aI0
aI0
aI0
asg9
(lp466
sg11
I00
sg12
I2
sg13
I29
sg14
Nsg15
I5
sba(iCollectionSetFactory
Collection
p467
(dp468
g7
(lp469
I0
aI0
aI0
aI1
aI0
aI0
aI0
aI0
aI1
aI0
aI0
aI1
aI0
aI0
aI0
asg9
(lp470
sg11
I00
sg12
I2
sg13
I29
sg14
Nsg15
I17
sba(iCollectionSetFactory
Collection
p471
(dp472
g7
(lp473
I0
aI0
aI0
aI1
aI0
aI1
aI0
aI0
aI1
aI0
aI0
aI0
aI0
aI0
aI0
asg9
(lp474
sg11
I00
sg12
I2
sg13
I29
sg14
Nsg15
I16
sba(iCollectionSetFactory
Collection
p475
(dp476
g7
(lp477
I1
aI0
aI0
aI0
aI1
aI0
aI1
aI0
aI0
aI0
aI0
aI0
aI0
aI0
aI0
asg9
(lp478
sg11
I00
sg12
I2
sg13
I29
sg14
Nsg15
I9
sba(iCollectionSetFactory
Collection
p479
(dp480
g7
(lp481
I0
aI0
aI0
aI0
aI1
aI0
aI0
aI1
aI1
aI0
aI0
aI0
aI0
aI0
aI0
asg9
(lp482
sg11
I00
sg12
I2
sg13
I28
sg14
Nsg15
I9
sba(iCollectionSetFactory
Collection
p483
(dp484
g7
(lp485
I1
aI0
aI0
aI1
aI0
aI0
aI0
aI0
aI1
aI0
aI0
aI0
aI0
aI0
aI0
asg9
(lp486
sg11
I00
sg12
I2
sg13
I28
sg14
Nsg15
I19
sba(iCollectionSetFactory
Collection
p487
(dp488
g7
(lp489
I0
aI0
aI0
aI1
aI0
aI1
aI0
aI1
aI0
aI0
aI0
aI0
aI0
aI0
aI0
asg9
(lp490
sg11
I00
sg12
I2
sg13
I27
sg14
Nsg15
I14
sba(iCollectionSetFactory
Collection
p491
(dp492
g7
(lp493
I0
aI1
aI0
aI0
aI0
aI0
aI0
aI1
aI0
aI0
aI1
aI0
aI0
aI0
aI0
asg9
(lp494
sg11
I00
sg12
I2
sg13
I27
sg14
Nsg15
I15
sba(iCollectionSetFactory
Collection
p495
(dp496
g7
(lp497
I0
aI0
aI0
aI0
aI0
aI1
aI0
aI0
aI1
aI0
aI0
aI1
aI0
aI0
aI0
asg9
(lp498
sg11
I00
sg12
I2
sg13
I26
sg14
Nsg15
I13
sba(iCollectionSetFactory
Collection
p499
(dp500
g7
(lp501
I0
aI0
aI0
aI0
aI1
aI0
aI1
aI0
aI0
aI1
aI0
aI0
aI0
aI0
aI0
asg9
(lp502
sg11
I00
sg12
I2
sg13
I26
sg14
Nsg15
I2
sba(iCollectionSetFactory
Collection
p503
(dp504
g7
(lp505
I0
aI0
aI0
aI0
aI0
aI1
aI0
aI0
aI1
aI1
aI0
aI0
aI0
aI0
aI0
asg9
(lp506
sg11
I00
sg12
I2
sg13
I25
sg14
Nsg15
I15
sba(iCollectionSetFactory
Collection
p507
(dp508
g7
(lp509
I0
aI0
aI0
aI1
aI1
aI0
aI0
aI0
aI1
aI0
aI0
aI0
aI0
aI0
aI0
asg9
(lp510
sg11
I00
sg12
I2
sg13
I25
sg14
Nsg15
I11
sba(iCollectionSetFactory
Collection
p511
(dp512
g7
(lp513
I0
aI0
aI0
aI0
aI0
aI0
aI1
aI1
aI0
aI0
aI0
aI1
aI0
aI0
aI0
asg9
(lp514
sg11
I00
sg12
I2
sg13
I23
sg14
Nsg15
I9
sba(iCollectionSetFactory
Collection
p515
(dp516
g7
(lp517
I0
aI0
aI0
aI0
aI0
aI0
aI1
aI1
aI1
aI0
aI0
aI0
aI0
aI0
aI0
asg9
(lp518
sg11
I00
sg12
I2
sg13
I23
sg14
Nsg15
I6
sba(iCollectionSetFactory
Collection
p519
(dp520
g7
(lp521
I0
aI1
aI0
aI1
aI0
aI0
aI0
aI0
aI1
aI0
aI0
aI0
aI0
aI0
aI0
asg9
(lp522
sg11
I00
sg12
I2
sg13
I23
sg14
Nsg15
I15
sba(iCollectionSetFactory
Collection
p523
(dp524
g7
(lp525
I1
aI0
aI0
aI0
aI0
aI1
aI1
aI0
aI0
aI0
aI0
aI0
aI0
aI0
aI0
asg9
(lp526
sg11
I00
sg12
I2
sg13
I23
sg14
Nsg15
I3
sba(iCollectionSetFactory
Collection
p527
(dp528
g7
(lp529
I1
aI0
aI0
aI0
aI1
aI1
aI0
aI0
aI0
aI0
aI0
aI0
aI0
aI0
aI0
asg9
(lp530
sg11
I00
sg12
I2
sg13
I23
sg14
Nsg15
I3
sba(iCollectionSetFactory
Collection
p531
(dp532
g7
(lp533
I0
aI0
aI0
aI0
aI0
aI0
aI1
aI0
aI0
aI0
aI1
aI1
aI0
aI0
aI0
asg9
(lp534
sg11
I00
sg12
I2
sg13
I22
sg14
Nsg15
I10
sba(iCollectionSetFactory
Collection
p535
(dp536
g7
(lp537
I0
aI0
aI0
aI1
aI0
aI0
aI1
aI1
aI0
aI0
aI0
aI0
aI0
aI0
aI0
asg9
(lp538
sg11
I00
sg12
I2
sg13
I22
sg14
Nsg15
I10
sba(iCollectionSetFactory
Collection
p539
(dp540
g7
(lp541
I0
aI0
aI0
aI0
aI0
aI0
aI1
aI0
aI1
aI0
aI1
aI0
aI0
aI0
aI0
asg9
(lp542
sg11
I00
sg12
I2
sg13
I21
sg14
Nsg15
I8
sba(iCollectionSetFactory
Collection
p543
(dp544
g7
(lp545
I0
aI0
aI0
aI1
aI0
aI0
aI0
aI1
aI0
aI0
aI0
aI1
aI0
aI0
aI0
asg9
(lp546
sg11
I00
sg12
I2
sg13
I21
sg14
Nsg15
I9
sba(iCollectionSetFactory
Collection
p547
(dp548
g7
(lp549
I0
aI0
aI0
aI1
aI0
aI0
aI1
aI0
aI1
aI0
aI0
aI0
aI0
aI0
aI0
asg9
(lp550
sg11
I00
sg12
I2
sg13
I21
sg14
Nsg15
I13
sba(iCollectionSetFactory
Collection
p551
(dp552
g7
(lp553
I0
aI0
aI0
aI1
aI1
aI0
aI0
aI0
aI0
aI0
aI1
aI0
aI0
aI0
aI0
asg9
(lp554
sg11
I00
sg12
I2
sg13
I21
sg14
Nsg15
I7
sba(iCollectionSetFactory
Collection
p555
(dp556
g7
(lp557
I0
aI1
aI0
aI0
aI0
aI1
aI0
aI1
aI0
aI0
aI0
aI0
aI0
aI0
aI0
asg9
(lp558
sg11
I00
sg12
I2
sg13
I21
sg14
Nsg15
I9
sba(iCollectionSetFactory
Collection
p559
(dp560
g7
(lp561
I1
aI0
aI0
aI1
aI0
aI0
aI0
aI1
aI0
aI0
aI0
aI0
aI0
aI0
aI0
asg9
(lp562
sg11
I00
sg12
I2
sg13
I21
sg14
Nsg15
I11
sba(iCollectionSetFactory
Collection
p563
(dp564
g7
(lp565
I0
aI0
aI0
aI0
aI0
aI1
aI0
aI0
aI0
aI1
aI0
aI1
aI0
aI0
aI0
asg9
(lp566
sg11
I00
sg12
I2
sg13
I20
sg14
Nsg15
I8
sba(iCollectionSetFactory
Collection
p567
(dp568
g7
(lp569
I0
aI0
aI0
aI0
aI0
aI1
aI0
aI1
aI0
aI0
aI0
aI1
aI0
aI0
aI0
asg9
(lp570
sg11
I00
sg12
I2
sg13
I20
sg14
Nsg15
I6
sba(iCollectionSetFactory
Collection
p571
(dp572
g7
(lp573
I0
aI0
aI0
aI1
aI1
aI0
aI0
aI1
aI0
aI0
aI0
aI0
aI0
aI0
aI0
asg9
(lp574
sg11
I00
sg12
I2
sg13
I20
sg14
Nsg15
I8
sba(iCollectionSetFactory
Collection
p575
(dp576
g7
(lp577
I0
aI1
aI0
aI0
aI0
aI1
aI0
aI0
aI0
aI0
aI1
aI0
aI0
aI0
aI0
asg9
(lp578
sg11
I00
sg12
I2
sg13
I20
sg14
Nsg15
I8
sba(iCollectionSetFactory
Collection
p579
(dp580
g7
(lp581
I0
aI0
aI0
aI0
aI1
aI0
aI0
aI0
aI0
aI0
aI1
aI1
aI0
aI0
aI0
asg9
(lp582
sg11
I00
sg12
I2
sg13
I19
sg14
Nsg15
I7
sba(iCollectionSetFactory
Collection
p583
(dp584
g7
(lp585
I1
aI0
aI0
aI0
aI0
aI0
aI1
aI0
aI0
aI0
aI1
aI0
aI0
aI0
aI0
asg9
(lp586
sg11
I00
sg12
I2
sg13
I19
sg14
Nsg15
I8
sba(iCollectionSetFactory
Collection
p587
(dp588
g7
(lp589
I0
aI0
aI0
aI0
aI0
aI0
aI0
aI0
aI1
aI1
aI1
aI0
aI0
aI0
aI0
asg9
(lp590
sg11
I00
sg12
I2
sg13
I18
sg14
Nsg15
I8
sba(iCollectionSetFactory
Collection
p591
(dp592
g7
(lp593
I0
aI0
aI0
aI0
aI0
aI0
aI0
aI1
aI1
aI0
aI0
aI1
aI0
aI0
aI0
asg9
(lp594
sg11
I00
sg12
I2
sg13
I18
sg14
Nsg15
I6
sba(iCollectionSetFactory
Collection
p595
(dp596
g7
(lp597
I0
aI0
aI0
aI0
aI1
aI0
aI0
aI1
aI0
aI0
aI0
aI1
aI0
aI0
aI0
asg9
(lp598
sg11
I00
sg12
I2
sg13
I18
sg14
Nsg15
I6
sba(iCollectionSetFactory
Collection
p599
(dp600
g7
(lp601
I0
aI0
aI0
aI1
aI0
aI0
aI0
aI1
aI0
aI1
aI0
aI0
aI0
aI0
aI0
asg9
(lp602
sg11
I00
sg12
I2
sg13
I18
sg14
Nsg15
I5
sba(iCollectionSetFactory
Collection
p603
(dp604
g7
(lp605
I0
aI0
aI0
aI1
aI0
aI1
aI0
aI0
aI0
aI0
aI0
aI1
aI0
aI0
aI0
asg9
(lp606
sg11
I00
sg12
I2
sg13
I18
sg14
Nsg15
I9
sba(iCollectionSetFactory
Collection
p607
(dp608
g7
(lp609
I0
aI0
aI0
aI1
aI0
aI1
aI0
aI0
aI0
aI1
aI0
aI0
aI0
aI0
aI0
asg9
(lp610
sg11
I00
sg12
I2
sg13
I18
sg14
Nsg15
I8
sba(iCollectionSetFactory
Collection
p611
(dp612
g7
(lp613
I0
aI1
aI0
aI0
aI0
aI0
aI0
aI0
aI0
aI1
aI1
aI0
aI0
aI0
aI0
asg9
(lp614
sg11
I00
sg12
I2
sg13
I18
sg14
Nsg15
I10
sba(iCollectionSetFactory
Collection
p615
(dp616
g7
(lp617
I0
aI1
aI0
aI0
aI0
aI1
aI0
aI0
aI1
aI0
aI0
aI0
aI0
aI0
aI0
asg9
(lp618
sg11
I00
sg12
I2
sg13
I18
sg14
Nsg15
I11
sba(iCollectionSetFactory
Collection
p619
(dp620
g7
(lp621
I0
aI1
aI0
aI1
aI0
aI1
aI0
aI0
aI0
aI0
aI0
aI0
aI0
aI0
aI0
asg9
(lp622
sg11
I00
sg12
I2
sg13
I18
sg14
Nsg15
I8
sba(iCollectionSetFactory
Collection
p623
(dp624
g7
(lp625
I0
aI0
aI0
aI0
aI0
aI0
aI0
aI1
aI1
aI1
aI0
aI0
aI0
aI0
aI0
asg9
(lp626
sg11
I00
sg12
I2
sg13
I17
sg14
Nsg15
I4
sba(iCollectionSetFactory
Collection
p627
(dp628
g7
(lp629
I0
aI0
aI0
aI0
aI0
aI0
aI1
aI0
aI1
aI0
aI0
aI1
aI0
aI0
aI0
asg9
(lp630
sg11
I00
sg12
I2
sg13
I17
sg14
Nsg15
I5
sba(iCollectionSetFactory
Collection
p631
(dp632
g7
(lp633
I0
aI0
aI0
aI0
aI0
aI1
aI0
aI0
aI0
aI1
aI1
aI0
aI0
aI0
aI0
asg9
(lp634
sg11
I00
sg12
I2
sg13
I17
sg14
Nsg15
I8
sba(iCollectionSetFactory
Collection
p635
(dp636
g7
(lp637
I0
aI0
aI0
aI0
aI0
aI1
aI0
aI1
aI0
aI1
aI0
aI0
aI0
aI0
aI0
asg9
(lp638
sg11
I00
sg12
I2
sg13
I17
sg14
Nsg15
I7
sba(iCollectionSetFactory
Collection
p639
(dp640
g7
(lp641
I0
aI0
aI0
aI0
aI1
aI0
aI0
aI0
aI1
aI0
aI0
aI1
aI0
aI0
aI0
asg9
(lp642
sg11
I00
sg12
I2
sg13
I17
sg14
Nsg15
I4
sba(iCollectionSetFactory
Collection
p643
(dp644
g7
(lp645
I0
aI0
aI0
aI1
aI0
aI0
aI0
aI0
aI0
aI0
aI1
aI1
aI0
aI0
aI0
asg9
(lp646
sg11
I00
sg12
I2
sg13
I17
sg14
Nsg15
I6
sba(iCollectionSetFactory
Collection
p647
(dp648
g7
(lp649
I0
aI0
aI0
aI1
aI0
aI0
aI1
aI0
aI0
aI0
aI1
aI0
aI0
aI0
aI0
asg9
(lp650
sg11
I00
sg12
I2
sg13
I17
sg14
Nsg15
I6
sba(iCollectionSetFactory
Collection
p651
(dp652
g7
(lp653
I0
aI0
aI0
aI1
aI0
aI1
aI0
aI0
aI0
aI0
aI1
aI0
aI0
aI0
aI0
asg9
(lp654
sg11
I00
sg12
I2
sg13
I17
sg14
Nsg15
I7
sba(iCollectionSetFactory
Collection
p655
(dp656
g7
(lp657
I0
aI1
aI0
aI0
aI0
aI1
aI0
aI0
aI0
aI0
aI0
aI1
aI0
aI0
aI0
asg9
(lp658
sg11
I00
sg12
I2
sg13
I17
sg14
Nsg15
I3
sba(iCollectionSetFactory
Collection
p659
(dp660
g7
(lp661
I0
aI0
aI0
aI0
aI0
aI0
aI1
aI0
aI0
aI1
aI0
aI1
aI0
aI0
aI0
asg9
(lp662
sg11
I00
sg12
I2
sg13
I16
sg14
Nsg15
I4
sba(iCollectionSetFactory
Collection
p663
(dp664
g7
(lp665
I0
aI0
aI0
aI0
aI0
aI1
aI0
aI0
aI0
aI0
aI1
aI1
aI0
aI0
aI0
asg9
(lp666
sg11
I00
sg12
I2
sg13
I16
sg14
Nsg15
I5
sba(iCollectionSetFactory
Collection
p667
(dp668
g7
(lp669
I0
aI1
aI0
aI0
aI0
aI0
aI1
aI0
aI0
aI0
aI0
aI1
aI0
aI0
aI0
asg9
(lp670
sg11
I00
sg12
I2
sg13
I16
sg14
Nsg15
I2
sba(iCollectionSetFactory
Collection
p671
(dp672
g7
(lp673
I0
aI1
aI0
aI0
aI0
aI1
aI0
aI0
aI0
aI1
aI0
aI0
aI0
aI0
aI0
asg9
(lp674
sg11
I00
sg12
I2
sg13
I16
sg14
Nsg15
I8
sba(iCollectionSetFactory
Collection
p675
(dp676
g7
(lp677
I0
aI1
aI0
aI0
aI1
aI0
aI0
aI1
aI0
aI0
aI0
aI0
aI0
aI0
aI0
asg9
(lp678
sg11
I00
sg12
I2
sg13
I16
sg14
Nsg15
I6
sba(iCollectionSetFactory
Collection
p679
(dp680
g7
(lp681
I1
aI0
aI0
aI0
aI0
aI0
aI1
aI0
aI0
aI0
aI0
aI1
aI0
aI0
aI0
asg9
(lp682
sg11
I00
sg12
I2
sg13
I16
sg14
Nsg15
I9
sba(iCollectionSetFactory
Collection
p683
(dp684
g7
(lp685
I1
aI0
aI0
aI0
aI0
aI0
aI1
aI1
aI0
aI0
aI0
aI0
aI0
aI0
aI0
asg9
(lp686
sg11
I00
sg12
I2
sg13
I16
sg14
Nsg15
I5
sba(iCollectionSetFactory
Collection
p687
(dp688
g7
(lp689
I1
aI0
aI0
aI0
aI0
aI1
aI0
aI0
aI0
aI0
aI1
aI0
aI0
aI0
aI0
asg9
(lp690
sg11
I00
sg12
I2
sg13
I16
sg14
Nsg15
I8
sba(iCollectionSetFactory
Collection
p691
(dp692
g7
(lp693
I1
aI0
aI0
aI0
aI0
aI1
aI0
aI0
aI0
aI1
aI0
aI0
aI0
aI0
aI0
asg9
(lp694
sg11
I00
sg12
I2
sg13
I16
sg14
Nsg15
I9
sba(iCollectionSetFactory
Collection
p695
(dp696
g7
(lp697
I1
aI0
aI0
aI1
aI0
aI0
aI0
aI0
aI0
aI0
aI1
aI0
aI0
aI0
aI0
asg9
(lp698
sg11
I00
sg12
I2
sg13
I16
sg14
Nsg15
I6
sba(iCollectionSetFactory
Collection
p699
(dp700
g7
(lp701
I0
aI0
aI0
aI1
aI0
aI0
aI0
aI0
aI0
aI1
aI1
aI0
aI0
aI0
aI0
asg9
(lp702
sg11
I00
sg12
I2
sg13
I15
sg14
Nsg15
I5
sba(iCollectionSetFactory
Collection
p703
(dp704
g7
(lp705
I0
aI1
aI0
aI0
aI0
aI0
aI0
aI0
aI0
aI0
aI1
aI1
aI0
aI0
aI0
asg9
(lp706
sg11
I00
sg12
I2
sg13
I15
sg14
Nsg15
I9
sba(iCollectionSetFactory
Collection
p707
(dp708
g7
(lp709
I0
aI1
aI0
aI0
aI1
aI0
aI0
aI0
aI0
aI0
aI1
aI0
aI0
aI0
aI0
asg9
(lp710
sg11
I00
sg12
I2
sg13
I15
sg14
Nsg15
I5
sba(iCollectionSetFactory
Collection
p711
(dp712
g7
(lp713
I0
aI1
aI0
aI1
aI0
aI0
aI0
aI0
aI0
aI0
aI1
aI0
aI0
aI0
aI0
asg9
(lp714
sg11
I00
sg12
I2
sg13
I15
sg14
Nsg15
I7
sba(iCollectionSetFactory
Collection
p715
(dp716
g7
(lp717
I0
aI1
aI0
aI1
aI0
aI0
aI0
aI1
aI0
aI0
aI0
aI0
aI0
aI0
aI0
asg9
(lp718
sg11
I00
sg12
I2
sg13
I15
sg14
Nsg15
I7
sba(iCollectionSetFactory
Collection
p719
(dp720
g7
(lp721
I0
aI0
aI0
aI1
aI0
aI0
aI1
aI0
aI0
aI0
aI0
aI1
aI0
aI0
aI0
asg9
(lp722
sg11
I00
sg12
I2
sg13
I14
sg14
Nsg15
I7
sba(iCollectionSetFactory
Collection
p723
(dp724
g7
(lp725
I0
aI1
aI0
aI0
aI0
aI0
aI0
aI0
aI1
aI0
aI1
aI0
aI0
aI0
aI0
asg9
(lp726
sg11
I00
sg12
I2
sg13
I14
sg14
Nsg15
I6
sba(iCollectionSetFactory
Collection
p727
(dp728
g7
(lp729
I0
aI1
aI0
aI1
aI0
aI0
aI1
aI0
aI0
aI0
aI0
aI0
aI0
aI0
aI0
asg9
(lp730
sg11
I00
sg12
I2
sg13
I14
sg14
Nsg15
I4
sba(iCollectionSetFactory
Collection
p731
(dp732
g7
(lp733
I0
aI0
aI0
aI0
aI0
aI0
aI0
aI1
aI0
aI1
aI0
aI1
aI0
aI0
aI0
asg9
(lp734
sg11
I00
sg12
I2
sg13
I13
sg14
Nsg15
I7
sba(iCollectionSetFactory
Collection
p735
(dp736
g7
(lp737
I0
aI0
aI0
aI0
aI0
aI0
aI1
aI0
aI0
aI1
aI1
aI0
aI0
aI0
aI0
asg9
(lp738
sg11
I00
sg12
I2
sg13
I13
sg14
Nsg15
I5
sba(iCollectionSetFactory
Collection
p739
(dp740
g7
(lp741
I0
aI0
aI0
aI0
aI0
aI0
aI1
aI1
aI0
aI1
aI0
aI0
aI0
aI0
aI0
asg9
(lp742
sg11
I00
sg12
I2
sg13
I13
sg14
Nsg15
I5
sba(iCollectionSetFactory
Collection
p743
(dp744
g7
(lp745
I0
aI0
aI0
aI1
aI0
aI0
aI0
aI0
aI0
aI1
aI0
aI1
aI0
aI0
aI0
asg9
(lp746
sg11
I00
sg12
I2
sg13
I13
sg14
Nsg15
I6
sba(iCollectionSetFactory
Collection
p747
(dp748
g7
(lp749
I0
aI1
aI0
aI0
aI0
aI0
aI0
aI0
aI0
aI1
aI0
aI1
aI0
aI0
aI0
asg9
(lp750
sg11
I00
sg12
I2
sg13
I13
sg14
Nsg15
I5
sba(iCollectionSetFactory
Collection
p751
(dp752
g7
(lp753
I0
aI1
aI0
aI0
aI0
aI0
aI0
aI1
aI0
aI1
aI0
aI0
aI0
aI0
aI0
asg9
(lp754
sg11
I00
sg12
I2
sg13
I13
sg14
Nsg15
I5
sba(iCollectionSetFactory
Collection
p755
(dp756
g7
(lp757
I0
aI1
aI0
aI0
aI0
aI0
aI0
aI1
aI1
aI0
aI0
aI0
aI0
aI0
aI0
asg9
(lp758
sg11
I00
sg12
I2
sg13
I13
sg14
Nsg15
I5
sba(iCollectionSetFactory
Collection
p759
(dp760
g7
(lp761
I0
aI1
aI0
aI0
aI0
aI0
aI1
aI1
aI0
aI0
aI0
aI0
aI0
aI0
aI0
asg9
(lp762
sg11
I00
sg12
I2
sg13
I13
sg14
Nsg15
I1
sba(iCollectionSetFactory
Collection
p763
(dp764
g7
(lp765
I0
aI1
aI0
aI0
aI1
aI0
aI0
aI0
aI0
aI0
aI0
aI1
aI0
aI0
aI0
asg9
(lp766
sg11
I00
sg12
I2
sg13
I13
sg14
Nsg15
I2
sba(iCollectionSetFactory
Collection
p767
(dp768
g7
(lp769
I0
aI1
aI0
aI0
aI1
aI0
aI0
aI0
aI1
aI0
aI0
aI0
aI0
aI0
aI0
asg9
(lp770
sg11
I00
sg12
I2
sg13
I13
sg14
Nsg15
I5
sba(iCollectionSetFactory
Collection
p771
(dp772
g7
(lp773
I0
aI1
aI0
aI1
aI0
aI0
aI0
aI0
aI0
aI0
aI0
aI1
aI0
aI0
aI0
asg9
(lp774
sg11
I00
sg12
I2
sg13
I13
sg14
Nsg15
I7
sba(iCollectionSetFactory
Collection
p775
(dp776
g7
(lp777
I1
aI0
aI0
aI0
aI0
aI0
aI0
aI0
aI0
aI1
aI1
aI0
aI0
aI0
aI0
asg9
(lp778
sg11
I00
sg12
I2
sg13
I13
sg14
Nsg15
I6
sba(iCollectionSetFactory
Collection
p779
(dp780
g7
(lp781
I1
aI0
aI0
aI0
aI0
aI0
aI0
aI0
aI1
aI0
aI1
aI0
aI0
aI0
aI0
asg9
(lp782
sg11
I00
sg12
I2
sg13
I13
sg14
Nsg15
I4
sba(iCollectionSetFactory
Collection
p783
(dp784
g7
(lp785
I1
aI0
aI0
aI0
aI0
aI0
aI0
aI1
aI1
aI0
aI0
aI0
aI0
aI0
aI0
asg9
(lp786
sg11
I00
sg12
I2
sg13
I13
sg14
Nsg15
I4
sba(iCollectionSetFactory
Collection
p787
(dp788
g7
(lp789
I1
aI0
aI0
aI0
aI0
aI0
aI1
aI0
aI1
aI0
aI0
aI0
aI0
aI0
aI0
asg9
(lp790
sg11
I00
sg12
I2
sg13
I13
sg14
Nsg15
I6
sba(iCollectionSetFactory
Collection
p791
(dp792
g7
(lp793
I1
aI0
aI0
aI0
aI0
aI1
aI0
aI0
aI1
aI0
aI0
aI0
aI0
aI0
aI0
asg9
(lp794
sg11
I00
sg12
I2
sg13
I13
sg14
Nsg15
I7
sba(iCollectionSetFactory
Collection
p795
(dp796
g7
(lp797
I1
aI0
aI0
aI0
aI0
aI1
aI0
aI1
aI0
aI0
aI0
aI0
aI0
aI0
aI0
asg9
(lp798
sg11
I00
sg12
I2
sg13
I13
sg14
Nsg15
I5
sba(iCollectionSetFactory
Collection
p799
(dp800
g7
(lp801
I1
aI0
aI0
aI0
aI1
aI0
aI0
aI0
aI0
aI0
aI1
aI0
aI0
aI0
aI0
asg9
(lp802
sg11
I00
sg12
I2
sg13
I13
sg14
Nsg15
I3
sba(iCollectionSetFactory
Collection
p803
(dp804
g7
(lp805
I1
aI0
aI0
aI1
aI0
aI0
aI1
aI0
aI0
aI0
aI0
aI0
aI0
aI0
aI0
asg9
(lp806
sg11
I00
sg12
I2
sg13
I13
sg14
Nsg15
I7
sba(iCollectionSetFactory
Collection
p807
(dp808
g7
(lp809
I1
aI1
aI0
aI0
aI0
aI0
aI0
aI0
aI1
aI0
aI0
aI0
aI0
aI0
aI0
asg9
(lp810
sg11
I00
sg12
I2
sg13
I13
sg14
Nsg15
I7
sba(iCollectionSetFactory
Collection
p811
(dp812
g7
(lp813
I1
aI1
aI0
aI1
aI0
aI0
aI0
aI0
aI0
aI0
aI0
aI0
aI0
aI0
aI0
asg9
(lp814
sg11
I00
sg12
I2
sg13
I13
sg14
Nsg15
I8
sba(iCollectionSetFactory
Collection
p815
(dp816
g7
(lp817
I0
aI0
aI0
aI0
aI0
aI0
aI0
aI0
aI0
aI1
aI1
aI1
aI0
aI0
aI0
asg9
(lp818
sg11
I00
sg12
I2
sg13
I12
sg14
Nsg15
I6
sba(iCollectionSetFactory
Collection
p819
(dp820
g7
(lp821
I0
aI0
aI0
aI0
aI0
aI0
aI0
aI0
aI1
aI0
aI1
aI1
aI0
aI0
aI0
asg9
(lp822
sg11
I00
sg12
I2
sg13
I12
sg14
Nsg15
I4
sba(iCollectionSetFactory
Collection
p823
(dp824
g7
(lp825
I0
aI0
aI0
aI0
aI0
aI0
aI0
aI0
aI1
aI1
aI0
aI1
aI0
aI0
aI0
asg9
(lp826
sg11
I00
sg12
I2
sg13
I12
sg14
Nsg15
I4
sba(iCollectionSetFactory
Collection
p827
(dp828
g7
(lp829
I0
aI0
aI0
aI0
aI1
aI0
aI0
aI0
aI0
aI1
aI0
aI1
aI0
aI0
aI0
asg9
(lp830
sg11
I00
sg12
I2
sg13
I12
sg14
Nsg15
I3
sba(iCollectionSetFactory
Collection
p831
(dp832
g7
(lp833
I0
aI1
aI0
aI0
aI0
aI0
aI1
aI0
aI0
aI0
aI1
aI0
aI0
aI0
aI0
asg9
(lp834
sg11
I00
sg12
I2
sg13
I12
sg14
Nsg15
I3
sba(iCollectionSetFactory
Collection
p835
(dp836
g7
(lp837
I1
aI0
aI0
aI0
aI0
aI0
aI0
aI0
aI0
aI0
aI1
aI1
aI0
aI0
aI0
asg9
(lp838
sg11
I00
sg12
I2
sg13
I12
sg14
Nsg15
I5
sba(iCollectionSetFactory
Collection
p839
(dp840
g7
(lp841
I1
aI0
aI0
aI0
aI1
aI0
aI0
aI1
aI0
aI0
aI0
aI0
aI0
aI0
aI0
asg9
(lp842
sg11
I00
sg12
I2
sg13
I12
sg14
Nsg15
I4
sba(iCollectionSetFactory
Collection
p843
(dp844
g7
(lp845
I1
aI1
aI0
aI0
aI0
aI0
aI0
aI0
aI0
aI0
aI1
aI0
aI0
aI0
aI0
asg9
(lp846
sg11
I00
sg12
I2
sg13
I12
sg14
Nsg15
I6
sba(iCollectionSetFactory
Collection
p847
(dp848
g7
(lp849
I1
aI1
aI0
aI0
aI0
aI1
aI0
aI0
aI0
aI0
aI0
aI0
aI0
aI0
aI0
asg9
(lp850
sg11
I00
sg12
I2
sg13
I12
sg14
Nsg15
I6
sba(iCollectionSetFactory
Collection
p851
(dp852
g7
(lp853
I0
aI0
aI0
aI0
aI0
aI0
aI1
aI0
aI1
aI1
aI0
aI0
aI0
aI0
aI0
asg9
(lp854
sg11
I00
sg12
I2
sg13
I11
sg14
Nsg15
I5
sba(iCollectionSetFactory
Collection
p855
(dp856
g7
(lp857
I0
aI1
aI0
aI0
aI0
aI0
aI0
aI0
aI1
aI1
aI0
aI0
aI0
aI0
aI0
asg9
(lp858
sg11
I00
sg12
I2
sg13
I11
sg14
Nsg15
I5
sba(iCollectionSetFactory
Collection
p859
(dp860
g7
(lp861
I0
aI1
aI0
aI1
aI0
aI0
aI0
aI0
aI0
aI1
aI0
aI0
aI0
aI0
aI0
asg9
(lp862
sg11
I00
sg12
I2
sg13
I11
sg14
Nsg15
I3
sba(iCollectionSetFactory
Collection
p863
(dp864
g7
(lp865
I0
aI1
aI0
aI1
aI1
aI0
aI0
aI0
aI0
aI0
aI0
aI0
aI0
aI0
aI0
asg9
(lp866
sg11
I00
sg12
I2
sg13
I11
sg14
Nsg15
I3
sba(iCollectionSetFactory
Collection
p867
(dp868
g7
(lp869
I1
aI0
aI0
aI0
aI0
aI0
aI0
aI0
aI1
aI1
aI0
aI0
aI0
aI0
aI0
asg9
(lp870
sg11
I00
sg12
I2
sg13
I11
sg14
Nsg15
I4
sba(iCollectionSetFactory
Collection
p871
(dp872
g7
(lp873
I1
aI0
aI0
aI0
aI0
aI0
aI1
aI0
aI0
aI1
aI0
aI0
aI0
aI0
aI0
asg9
(lp874
sg11
I00
sg12
I2
sg13
I11
sg14
Nsg15
I4
sba(iCollectionSetFactory
Collection
p875
(dp876
g7
(lp877
I1
aI0
aI0
aI0
aI1
aI0
aI0
aI0
aI1
aI0
aI0
aI0
aI0
aI0
aI0
asg9
(lp878
sg11
I00
sg12
I2
sg13
I11
sg14
Nsg15
I4
sba(iCollectionSetFactory
Collection
p879
(dp880
g7
(lp881
I1
aI0
aI0
aI1
aI0
aI0
aI0
aI0
aI0
aI1
aI0
aI0
aI0
aI0
aI0
asg9
(lp882
sg11
I00
sg12
I2
sg13
I11
sg14
Nsg15
I4
sba(iCollectionSetFactory
Collection
p883
(dp884
g7
(lp885
I1
aI0
aI0
aI1
aI1
aI0
aI0
aI0
aI0
aI0
aI0
aI0
aI0
aI0
aI0
asg9
(lp886
sg11
I00
sg12
I2
sg13
I11
sg14
Nsg15
I5
sba(iCollectionSetFactory
Collection
p887
(dp888
g7
(lp889
I0
aI0
aI0
aI0
aI1
aI0
aI0
aI0
aI1
aI1
aI0
aI0
aI0
aI0
aI0
asg9
(lp890
sg11
I00
sg12
I2
sg13
I10
sg14
Nsg15
I2
sba(iCollectionSetFactory
Collection
p891
(dp892
g7
(lp893
I0
aI0
aI0
aI0
aI1
aI0
aI0
aI1
aI0
aI1
aI0
aI0
aI0
aI0
aI0
asg9
(lp894
sg11
I00
sg12
I2
sg13
I10
sg14
Nsg15
I5
sba(iCollectionSetFactory
Collection
p895
(dp896
g7
(lp897
I0
aI0
aI0
aI1
aI0
aI0
aI1
aI0
aI0
aI1
aI0
aI0
aI0
aI0
aI0
asg9
(lp898
sg11
I00
sg12
I2
sg13
I10
sg14
Nsg15
I5
sba(iCollectionSetFactory
Collection
p899
(dp900
g7
(lp901
I0
aI0
aI0
aI1
aI1
aI0
aI0
aI0
aI0
aI0
aI0
aI1
aI0
aI0
aI0
asg9
(lp902
sg11
I00
sg12
I2
sg13
I10
sg14
Nsg15
I4
sba(iCollectionSetFactory
Collection
p903
(dp904
g7
(lp905
I0
aI1
aI0
aI0
aI0
aI0
aI1
aI0
aI1
aI0
aI0
aI0
aI0
aI0
aI0
asg9
(lp906
sg11
I00
sg12
I2
sg13
I10
sg14
Nsg15
I2
sba(iCollectionSetFactory
Collection
p907
(dp908
g7
(lp909
I0
aI1
aI0
aI0
aI0
aI0
aI0
aI0
aI1
aI0
aI0
aI1
aI0
aI0
aI0
asg9
(lp910
sg11
I00
sg12
I2
sg13
I9
sg14
Nsg15
I3
sba(iCollectionSetFactory
Collection
p911
(dp912
g7
(lp913
I0
aI1
aI0
aI0
aI0
aI0
aI0
aI1
aI0
aI0
aI0
aI1
aI0
aI0
aI0
asg9
(lp914
sg11
I00
sg12
I2
sg13
I9
sg14
Nsg15
I3
sba(iCollectionSetFactory
Collection
p915
(dp916
g7
(lp917
I0
aI1
aI0
aI0
aI0
aI0
aI1
aI0
aI0
aI1
aI0
aI0
aI0
aI0
aI0
asg9
(lp918
sg11
I00
sg12
I2
sg13
I9
sg14
Nsg15
I2
sba(iCollectionSetFactory
Collection
p919
(dp920
g7
(lp921
I1
aI0
aI0
aI0
aI0
aI0
aI0
aI0
aI0
aI1
aI0
aI1
aI0
aI0
aI0
asg9
(lp922
sg11
I00
sg12
I2
sg13
I9
sg14
Nsg15
I3
sba(iCollectionSetFactory
Collection
p923
(dp924
g7
(lp925
I1
aI0
aI0
aI0
aI0
aI0
aI0
aI1
aI0
aI0
aI0
aI1
aI0
aI0
aI0
asg9
(lp926
sg11
I00
sg12
I2
sg13
I9
sg14
Nsg15
I3
sba(iCollectionSetFactory
Collection
p927
(dp928
g7
(lp929
I1
aI0
aI0
aI0
aI0
aI1
aI0
aI0
aI0
aI0
aI0
aI1
aI0
aI0
aI0
asg9
(lp930
sg11
I00
sg12
I2
sg13
I9
sg14
Nsg15
I3
sba(iCollectionSetFactory
Collection
p931
(dp932
g7
(lp933
I1
aI0
aI0
aI0
aI1
aI0
aI0
aI0
aI0
aI1
aI0
aI0
aI0
aI0
aI0
asg9
(lp934
sg11
I00
sg12
I2
sg13
I9
sg14
Nsg15
I2
sba(iCollectionSetFactory
Collection
p935
(dp936
g7
(lp937
I1
aI0
aI0
aI1
aI0
aI1
aI0
aI0
aI0
aI0
aI0
aI0
aI0
aI0
aI0
asg9
(lp938
sg11
I00
sg12
I2
sg13
I9
sg14
Nsg15
I4
sba(iCollectionSetFactory
Collection
p939
(dp940
g7
(lp941
I1
aI1
aI0
aI0
aI0
aI0
aI0
aI1
aI0
aI0
aI0
aI0
aI0
aI0
aI0
asg9
(lp942
sg11
I00
sg12
I2
sg13
I9
sg14
Nsg15
I4
sba(iCollectionSetFactory
Collection
p943
(dp944
g7
(lp945
I1
aI1
aI0
aI0
aI0
aI0
aI1
aI0
aI0
aI0
aI0
aI0
aI0
aI0
aI0
asg9
(lp946
sg11
I00
sg12
I2
sg13
I9
sg14
Nsg15
I3
sba(iCollectionSetFactory
Collection
p947
(dp948
g7
(lp949
I1
aI1
aI0
aI0
aI1
aI0
aI0
aI0
aI0
aI0
aI0
aI0
aI0
aI0
aI0
asg9
(lp950
sg11
I00
sg12
I2
sg13
I9
sg14
Nsg15
I4
sba(iCollectionSetFactory
Collection
p951
(dp952
g7
(lp953
I0
aI0
aI0
aI0
aI1
aI0
aI0
aI0
aI0
aI1
aI1
aI0
aI0
aI0
aI0
asg9
(lp954
sg11
I00
sg12
I2
sg13
I8
sg14
Nsg15
I3
sba(iCollectionSetFactory
Collection
p955
(dp956
g7
(lp957
I0
aI0
aI0
aI1
aI1
aI0
aI0
aI0
aI0
aI1
aI0
aI0
aI0
aI0
aI0
asg9
(lp958
sg11
I00
sg12
I2
sg13
I8
sg14
Nsg15
I1
sba(iCollectionSetFactory
Collection
p959
(dp960
g7
(lp961
I0
aI1
aI0
aI0
aI1
aI0
aI0
aI0
aI0
aI1
aI0
aI0
aI0
aI0
aI0
asg9
(lp962
sg11
I00
sg12
I2
sg13
I8
sg14
Nsg15
I2
sba(iCollectionSetFactory
Collection
p963
(dp964
g7
(lp965
I1
aI0
aI0
aI0
aI0
aI0
aI0
aI1
aI0
aI1
aI0
aI0
aI0
aI0
aI0
asg9
(lp966
sg11
I00
sg12
I2
sg13
I8
sg14
Nsg15
I1
sba(iCollectionSetFactory
Collection
p967
(dp968
g7
(lp969
I1
aI0
aI0
aI0
aI0
aI0
aI0
aI0
aI1
aI0
aI0
aI1
aI0
aI0
aI0
asg9
(lp970
sg11
I00
sg12
I2
sg13
I7
sg14
Nsg15
I2
sba(iCollectionSetFactory
Collection
p971
(dp972
g7
(lp973
I1
aI0
aI0
aI0
aI1
aI0
aI0
aI0
aI0
aI0
aI0
aI1
aI0
aI0
aI0
asg9
(lp974
sg11
I00
sg12
I2
sg13
I7
sg14
Nsg15
I1
sba(iCollectionSetFactory
Collection
p975
(dp976
g7
(lp977
I1
aI1
aI0
aI0
aI0
aI0
aI0
aI0
aI0
aI0
aI0
aI1
aI0
aI0
aI0
asg9
(lp978
sg11
I00
sg12
I2
sg13
I7
sg14
Nsg15
I4
sba(iCollectionSetFactory
Collection
p979
(dp980
g7
(lp981
I1
aI1
aI0
aI0
aI0
aI0
aI0
aI0
aI0
aI1
aI0
aI0
aI0
aI0
aI0
asg9
(lp982
sg11
I00
sg12
I2
sg13
I7
sg14
Nsg15
I2
sba(iCollectionSetFactory
Collection
p983
(dp984
g7
(lp985
I1
aI0
aI0
aI1
aI0
aI0
aI0
aI0
aI0
aI0
aI0
aI1
aI0
aI0
aI0
asg9
(lp986
sg11
I00
sg12
I2
sg13
I4
sg14
Nsg15
I2
sba(iCollectionSetFactory
Collection
p987
(dp988
g7
(lp989
I0
aI0
aI0
aI0
aI1
aI0
aI0
aI0
aI1
aI0
aI0
aI0
aI0
aI1
aI0
asg9
(lp990
sg11
I01
sg12
I2
sg13
I1
sg14
Nsg15
I1
sba(iCollectionSetFactory
Collection
p991
(dp992
g7
(lp993
I1
aI1
aI1
aI0
aI0
aI0
aI0
aI0
aI0
aI0
aI0
aI0
aI0
aI0
aI0
asg9
(lp994
sg11
I01
sg12
I2
sg13
I1
sg14
Nsg15
I1
sbaa(lp995
(iCollectionSetFactory
Collection
p996
(dp997
g7
(lp998
I0
aI0
aI0
aI0
aI1
aI1
aI1
aI1
aI0
aI0
aI0
aI0
aI0
aI0
aI0
asg9
(lp999
sg11
I00
sg12
I2
sg13
I44
sg14
Nsg15
I22
sba(iCollectionSetFactory
Collection
p1000
(dp1001
g7
(lp1002
I0
aI0
aI0
aI0
aI1
aI1
aI1
aI0
aI0
aI0
aI1
aI0
aI0
aI0
aI0
asg9
(lp1003
sg11
I00
sg12
I2
sg13
I40
sg14
Nsg15
I18
sba(iCollectionSetFactory
Collection
p1004
(dp1005
g7
(lp1006
I0
aI0
aI0
aI0
aI1
aI1
aI1
aI0
aI0
aI0
aI0
aI1
aI0
aI0
aI0
asg9
(lp1007
(iCollectionSetFactory
CollectionLink
p1008
(dp1009
g75
Nsg76
g69
sg77
g78
sg79
Nsba(iCollectionSetFactory
CollectionLink
p1010
(dp1011
g75
Nsg76
g198
sg77
g78
sg79
Nsbasg11
I00
sg12
I0
sg13
I36
sg14
F216.0
sg15
I24
sba(iCollectionSetFactory
Collection
p1012
(dp1013
g7
(lp1014
I0
aI0
aI0
aI0
aI1
aI1
aI1
aI0
aI1
aI0
aI0
aI0
aI0
aI0
aI0
asg9
(lp1015
sg11
I00
sg12
I2
sg13
I36
sg14
Nsg15
I22
sba(iCollectionSetFactory
Collection
p1016
(dp1017
g7
(lp1018
I0
aI1
aI0
aI0
aI1
aI1
aI1
aI0
aI0
aI0
aI0
aI0
aI0
aI0
aI0
asg9
(lp1019
sg11
I00
sg12
I2
sg13
I29
sg14
Nsg15
I18
sba(iCollectionSetFactory
Collection
p1020
(dp1021
g7
(lp1022
I0
aI0
aI0
aI0
aI1
aI0
aI1
aI1
aI0
aI0
aI1
aI0
aI0
aI0
aI0
asg9
(lp1023
sg11
I00
sg12
I2
sg13
I26
sg14
Nsg15
I4
sba(iCollectionSetFactory
Collection
p1024
(dp1025
g7
(lp1026
I0
aI0
aI0
aI1
aI1
aI1
aI1
aI0
aI0
aI0
aI0
aI0
aI0
aI0
aI0
asg9
(lp1027
sg11
I00
sg12
I2
sg13
I26
sg14
Nsg15
I17
sba(iCollectionSetFactory
Collection
p1028
(dp1029
g7
(lp1030
I0
aI0
aI0
aI0
aI0
aI1
aI1
aI1
aI0
aI0
aI1
aI0
aI0
aI0
aI0
asg9
(lp1031
sg11
I00
sg12
I2
sg13
I25
sg14
Nsg15
I3
sba(iCollectionSetFactory
Collection
p1032
(dp1033
g7
(lp1034
I0
aI0
aI0
aI0
aI1
aI1
aI0
aI1
aI0
aI0
aI1
aI0
aI0
aI0
aI0
asg9
(lp1035
sg11
I00
sg12
I2
sg13
I24
sg14
Nsg15
I2
sba(iCollectionSetFactory
Collection
p1036
(dp1037
g7
(lp1038
I0
aI0
aI0
aI0
aI1
aI1
aI1
aI0
aI0
aI1
aI0
aI0
aI0
aI0
aI0
asg9
(lp1039
sg11
I00
sg12
I2
sg13
I24
sg14
Nsg15
I15
sba(iCollectionSetFactory
Collection
p1040
(dp1041
g7
(lp1042
I0
aI0
aI0
aI1
aI0
aI0
aI0
aI1
aI1
aI0
aI1
aI0
aI0
aI0
aI0
asg9
(lp1043
sg11
I00
sg12
I2
sg13
I21
sg14
Nsg15
I13
sba(iCollectionSetFactory
Collection
p1044
(dp1045
g7
(lp1046
I1
aI0
aI0
aI0
aI1
aI1
aI1
aI0
aI0
aI0
aI0
aI0
aI0
aI0
aI0
asg9
(lp1047
sg11
I00
sg12
I2
sg13
I20
sg14
Nsg15
I14
sba(iCollectionSetFactory
Collection
p1048
(dp1049
g7
(lp1050
I0
aI0
aI0
aI0
aI1
aI0
aI0
aI1
aI1
aI0
aI1
aI0
aI0
aI0
aI0
asg9
(lp1051
sg11
I00
sg12
I2
sg13
I19
sg14
Nsg15
I9
sba(iCollectionSetFactory
Collection
p1052
(dp1053
g7
(lp1054
I0
aI0
aI0
aI0
aI0
aI1
aI0
aI1
aI1
aI0
aI1
aI0
aI0
aI0
aI0
asg9
(lp1055
sg11
I00
sg12
I2
sg13
I18
sg14
Nsg15
I9
sba(iCollectionSetFactory
Collection
p1056
(dp1057
g7
(lp1058
I0
aI0
aI0
aI0
aI1
aI0
aI1
aI1
aI1
aI0
aI0
aI0
aI0
aI0
aI0
asg9
(lp1059
sg11
I00
sg12
I2
sg13
I17
sg14
Nsg15
I3
sba(iCollectionSetFactory
Collection
p1060
(dp1061
g7
(lp1062
I0
aI0
aI0
aI0
aI0
aI1
aI1
aI1
aI1
aI0
aI0
aI0
aI0
aI0
aI0
asg9
(lp1063
sg11
I00
sg12
I2
sg13
I15
sg14
Nsg15
I1
sba(iCollectionSetFactory
Collection
p1064
(dp1065
g7
(lp1066
I0
aI0
aI0
aI0
aI1
aI1
aI0
aI1
aI1
aI0
aI0
aI0
aI0
aI0
aI0
asg9
(lp1067
sg11
I00
sg12
I2
sg13
I15
sg14
Nsg15
I1
sba(iCollectionSetFactory
Collection
p1068
(dp1069
g7
(lp1070
I0
aI0
aI0
aI0
aI0
aI1
aI1
aI1
aI0
aI0
aI0
aI1
aI0
aI0
aI0
asg9
(lp1071
sg11
I00
sg12
I2
sg13
I14
sg14
Nsg15
I2
sba(iCollectionSetFactory
Collection
p1072
(dp1073
g7
(lp1074
I0
aI0
aI0
aI0
aI1
aI1
aI0
aI0
aI1
aI0
aI1
aI0
aI0
aI0
aI0
asg9
(lp1075
sg11
I00
sg12
I2
sg13
I14
sg14
Nsg15
I3
sba(iCollectionSetFactory
Collection
p1076
(dp1077
g7
(lp1078
I0
aI0
aI0
aI1
aI1
aI0
aI0
aI0
aI1
aI0
aI1
aI0
aI0
aI0
aI0
asg9
(lp1079
sg11
I00
sg12
I2
sg13
I14
sg14
Nsg15
I6
sba(iCollectionSetFactory
Collection
p1080
(dp1081
g7
(lp1082
I0
aI1
aI0
aI0
aI0
aI1
aI1
aI0
aI0
aI0
aI0
aI1
aI0
aI0
aI0
asg9
(lp1083
sg11
I00
sg12
I2
sg13
I14
sg14
Nsg15
I3
sba(iCollectionSetFactory
Collection
p1084
(dp1085
g7
(lp1086
I0
aI0
aI0
aI0
aI0
aI0
aI1
aI1
aI1
aI0
aI1
aI0
aI0
aI0
aI0
asg9
(lp1087
sg11
I00
sg12
I2
sg13
I13
sg14
Nsg15
I3
sba(iCollectionSetFactory
Collection
p1088
(dp1089
g7
(lp1090
I0
aI0
aI0
aI0
aI1
aI0
aI1
aI0
aI1
aI0
aI1
aI0
aI0
aI0
aI0
asg9
(lp1091
sg11
I00
sg12
I2
sg13
I13
sg14
Nsg15
I2
sba(iCollectionSetFactory
Collection
p1092
(dp1093
g7
(lp1094
I0
aI0
aI0
aI0
aI1
aI1
aI0
aI0
aI1
aI0
aI0
aI1
aI0
aI0
aI0
asg9
(lp1095
sg11
I00
sg12
I2
sg13
I13
sg14
Nsg15
I2
sba(iCollectionSetFactory
Collection
p1096
(dp1097
g7
(lp1098
I0
aI0
aI0
aI1
aI0
aI0
aI0
aI1
aI1
aI1
aI0
aI0
aI0
aI0
aI0
asg9
(lp1099
sg11
I00
sg12
I2
sg13
I13
sg14
Nsg15
I6
sba(iCollectionSetFactory
Collection
p1100
(dp1101
g7
(lp1102
I0
aI0
aI0
aI1
aI0
aI1
aI0
aI1
aI1
aI0
aI0
aI0
aI0
aI0
aI0
asg9
(lp1103
sg11
I00
sg12
I2
sg13
I13
sg14
Nsg15
I6
sba(iCollectionSetFactory
Collection
p1104
(dp1105
g7
(lp1106
I0
aI0
aI0
aI0
aI0
aI0
aI1
aI1
aI0
aI0
aI1
aI1
aI0
aI0
aI0
asg9
(lp1107
sg11
I00
sg12
I2
sg13
I12
sg14
Nsg15
I4
sba(iCollectionSetFactory
Collection
p1108
(dp1109
g7
(lp1110
I0
aI0
aI0
aI0
aI0
aI1
aI1
aI0
aI0
aI1
aI0
aI1
aI0
aI0
aI0
asg9
(lp1111
sg11
I00
sg12
I2
sg13
I12
sg14
Nsg15
I3
sba(iCollectionSetFactory
Collection
p1112
(dp1113
g7
(lp1114
I0
aI0
aI0
aI0
aI0
aI1
aI1
aI0
aI1
aI0
aI0
aI1
aI0
aI0
aI0
asg9
(lp1115
sg11
I00
sg12
I2
sg13
I12
sg14
Nsg15
I1
sba(iCollectionSetFactory
Collection
p1116
(dp1117
g7
(lp1118
I0
aI0
aI0
aI0
aI1
aI0
aI0
aI1
aI0
aI0
aI1
aI1
aI0
aI0
aI0
asg9
(lp1119
sg11
I00
sg12
I2
sg13
I12
sg14
Nsg15
I5
sba(iCollectionSetFactory
Collection
p1120
(dp1121
g7
(lp1122
I0
aI0
aI0
aI0
aI1
aI0
aI1
aI0
aI1
aI0
aI0
aI1
aI0
aI0
aI0
asg9
(lp1123
sg11
I00
sg12
I2
sg13
I12
sg14
Nsg15
I1
sba(iCollectionSetFactory
Collection
p1124
(dp1125
g7
(lp1126
I0
aI0
aI0
aI1
aI0
aI0
aI0
aI1
aI1
aI0
aI0
aI1
aI0
aI0
aI0
asg9
(lp1127
sg11
I00
sg12
I2
sg13
I12
sg14
Nsg15
I7
sba(iCollectionSetFactory
Collection
p1128
(dp1129
g7
(lp1130
I0
aI0
aI0
aI1
aI1
aI0
aI1
aI1
aI0
aI0
aI0
aI0
aI0
aI0
aI0
asg9
(lp1131
sg11
I00
sg12
I2
sg13
I12
sg14
Nsg15
I3
sba(iCollectionSetFactory
Collection
p1132
(dp1133
g7
(lp1134
I0
aI1
aI0
aI0
aI0
aI1
aI0
aI1
aI0
aI0
aI1
aI0
aI0
aI0
aI0
asg9
(lp1135
sg11
I00
sg12
I2
sg13
I12
sg14
Nsg15
I7
sba(iCollectionSetFactory
Collection
p1136
(dp1137
g7
(lp1138
I0
aI1
aI0
aI0
aI0
aI1
aI1
aI1
aI0
aI0
aI0
aI0
aI0
aI0
aI0
asg9
(lp1139
sg11
I00
sg12
I2
sg13
I12
sg14
Nsg15
I2
sba(iCollectionSetFactory
Collection
p1140
(dp1141
g7
(lp1142
I0
aI0
aI0
aI0
aI0
aI1
aI1
aI0
aI0
aI0
aI1
aI1
aI0
aI0
aI0
asg9
(lp1143
sg11
I00
sg12
I2
sg13
I11
sg14
Nsg15
I1
sba(iCollectionSetFactory
Collection
p1144
(dp1145
g7
(lp1146
I0
aI0
aI0
aI0
aI1
aI1
aI0
aI0
aI0
aI0
aI1
aI1
aI0
aI0
aI0
asg9
(lp1147
sg11
I00
sg12
I2
sg13
I11
sg14
Nsg15
I1
sba(iCollectionSetFactory
Collection
p1148
(dp1149
g7
(lp1150
I0
aI0
aI0
aI1
aI0
aI0
aI0
aI1
aI0
aI0
aI1
aI1
aI0
aI0
aI0
asg9
(lp1151
sg11
I00
sg12
I2
sg13
I11
sg14
Nsg15
I6
sba(iCollectionSetFactory
Collection
p1152
(dp1153
g7
(lp1154
I0
aI0
aI0
aI1
aI0
aI0
aI1
aI1
aI0
aI0
aI1
aI0
aI0
aI0
aI0
asg9
(lp1155
sg11
I00
sg12
I2
sg13
I11
sg14
Nsg15
I6
sba(iCollectionSetFactory
Collection
p1156
(dp1157
g7
(lp1158
I0
aI0
aI0
aI1
aI1
aI0
aI0
aI1
aI0
aI0
aI1
aI0
aI0
aI0
aI0
asg9
(lp1159
sg11
I00
sg12
I2
sg13
I11
sg14
Nsg15
I3
sba(iCollectionSetFactory
Collection
p1160
(dp1161
g7
(lp1162
I1
aI0
aI0
aI0
aI0
aI0
aI1
aI1
aI0
aI0
aI1
aI0
aI0
aI0
aI0
asg9
(lp1163
sg11
I00
sg12
I2
sg13
I11
sg14
Nsg15
I6
sba(iCollectionSetFactory
Collection
p1164
(dp1165
g7
(lp1166
I0
aI0
aI0
aI0
aI0
aI0
aI0
aI1
aI1
aI1
aI1
aI0
aI0
aI0
aI0
asg9
(lp1167
sg11
I00
sg12
I2
sg13
I10
sg14
Nsg15
I3
sba(iCollectionSetFactory
Collection
p1168
(dp1169
g7
(lp1170
I0
aI0
aI0
aI0
aI0
aI1
aI0
aI1
aI1
aI0
aI0
aI1
aI0
aI0
aI0
asg9
(lp1171
sg11
I00
sg12
I2
sg13
I10
sg14
Nsg15
I3
sba(iCollectionSetFactory
Collection
p1172
(dp1173
g7
(lp1174
I0
aI0
aI0
aI0
aI0
aI1
aI0
aI1
aI1
aI1
aI0
aI0
aI0
aI0
aI0
asg9
(lp1175
sg11
I00
sg12
I2
sg13
I10
sg14
Nsg15
I3
sba(iCollectionSetFactory
Collection
p1176
(dp1177
g7
(lp1178
I0
aI0
aI0
aI1
aI0
aI0
aI0
aI0
aI1
aI1
aI1
aI0
aI0
aI0
aI0
asg9
(lp1179
sg11
I00
sg12
I2
sg13
I10
sg14
Nsg15
I4
sba(iCollectionSetFactory
Collection
p1180
(dp1181
g7
(lp1182
I0
aI0
aI0
aI1
aI0
aI1
aI0
aI0
aI1
aI1
aI0
aI0
aI0
aI0
aI0
asg9
(lp1183
sg11
I00
sg12
I2
sg13
I10
sg14
Nsg15
I3
sba(iCollectionSetFactory
Collection
p1184
(dp1185
g7
(lp1186
I0
aI0
aI0
aI1
aI0
aI1
aI0
aI1
aI0
aI0
aI1
aI0
aI0
aI0
aI0
asg9
(lp1187
sg11
I00
sg12
I2
sg13
I10
sg14
Nsg15
I4
sba(iCollectionSetFactory
Collection
p1188
(dp1189
g7
(lp1190
I0
aI0
aI0
aI1
aI0
aI1
aI1
aI1
aI0
aI0
aI0
aI0
aI0
aI0
aI0
asg9
(lp1191
sg11
I00
sg12
I2
sg13
I10
sg14
Nsg15
I1
sba(iCollectionSetFactory
Collection
p1192
(dp1193
g7
(lp1194
I0
aI0
aI0
aI1
aI1
aI0
aI0
aI1
aI1
aI0
aI0
aI0
aI0
aI0
aI0
asg9
(lp1195
sg11
I00
sg12
I2
sg13
I10
sg14
Nsg15
I2
sba(iCollectionSetFactory
Collection
p1196
(dp1197
g7
(lp1198
I0
aI1
aI0
aI0
aI1
aI1
aI0
aI0
aI0
aI0
aI1
aI0
aI0
aI0
aI0
asg9
(lp1199
sg11
I00
sg12
I2
sg13
I10
sg14
Nsg15
I1
sba(iCollectionSetFactory
Collection
p1200
(dp1201
g7
(lp1202
I0
aI1
aI0
aI1
aI0
aI1
aI1
aI0
aI0
aI0
aI0
aI0
aI0
aI0
aI0
asg9
(lp1203
sg11
I00
sg12
I2
sg13
I10
sg14
Nsg15
I2
sba(iCollectionSetFactory
Collection
p1204
(dp1205
g7
(lp1206
I1
aI0
aI0
aI0
aI1
aI0
aI1
aI0
aI0
aI0
aI1
aI0
aI0
aI0
aI0
asg9
(lp1207
sg11
I00
sg12
I2
sg13
I10
sg14
Nsg15
I4
sba(iCollectionSetFactory
Collection
p1208
(dp1209
g7
(lp1210
I1
aI0
aI0
aI1
aI0
aI0
aI0
aI1
aI0
aI0
aI1
aI0
aI0
aI0
aI0
asg9
(lp1211
sg11
I00
sg12
I2
sg13
I10
sg14
Nsg15
I4
sba(iCollectionSetFactory
Collection
p1212
(dp1213
g7
(lp1214
I0
aI0
aI0
aI0
aI0
aI1
aI0
aI0
aI1
aI1
aI1
aI0
aI0
aI0
aI0
asg9
(lp1215
sg11
I00
sg12
I2
sg13
I9
sg14
Nsg15
I2
sba(iCollectionSetFactory
Collection
p1216
(dp1217
g7
(lp1218
I0
aI0
aI0
aI0
aI0
aI1
aI0
aI1
aI0
aI1
aI1
aI0
aI0
aI0
aI0
asg9
(lp1219
sg11
I00
sg12
I2
sg13
I9
sg14
Nsg15
I2
sba(iCollectionSetFactory
Collection
p1220
(dp1221
g7
(lp1222
I0
aI0
aI0
aI0
aI1
aI0
aI0
aI1
aI1
aI0
aI0
aI1
aI0
aI0
aI0
asg9
(lp1223
sg11
I00
sg12
I2
sg13
I9
sg14
Nsg15
I2
sba(iCollectionSetFactory
Collection
p1224
(dp1225
g7
(lp1226
I0
aI0
aI0
aI1
aI0
aI1
aI0
aI0
aI1
aI0
aI0
aI1
aI0
aI0
aI0
asg9
(lp1227
sg11
I00
sg12
I2
sg13
I9
sg14
Nsg15
I5
sba(iCollectionSetFactory
Collection
p1228
(dp1229
g7
(lp1230
I0
aI1
aI0
aI0
aI1
aI0
aI0
aI1
aI0
aI0
aI1
aI0
aI0
aI0
aI0
asg9
(lp1231
sg11
I00
sg12
I2
sg13
I9
sg14
Nsg15
I4
sba(iCollectionSetFactory
Collection
p1232
(dp1233
g7
(lp1234
I1
aI0
aI0
aI0
aI0
aI0
aI0
aI1
aI1
aI0
aI1
aI0
aI0
aI0
aI0
asg9
(lp1235
sg11
I00
sg12
I2
sg13
I9
sg14
Nsg15
I3
sba(iCollectionSetFactory
Collection
p1236
(dp1237
g7
(lp1238
I1
aI0
aI0
aI1
aI0
aI0
aI0
aI0
aI1
aI0
aI1
aI0
aI0
aI0
aI0
asg9
(lp1239
sg11
I00
sg12
I2
sg13
I9
sg14
Nsg15
I3
sba(iCollectionSetFactory
Collection
p1240
(dp1241
g7
(lp1242
I1
aI0
aI0
aI1
aI0
aI0
aI0
aI1
aI1
aI0
aI0
aI0
aI0
aI0
aI0
asg9
(lp1243
sg11
I00
sg12
I2
sg13
I9
sg14
Nsg15
I3
sba(iCollectionSetFactory
Collection
p1244
(dp1245
g7
(lp1246
I0
aI0
aI0
aI0
aI0
aI0
aI0
aI1
aI1
aI0
aI1
aI1
aI0
aI0
aI0
asg9
(lp1247
sg11
I00
sg12
I2
sg13
I8
sg14
Nsg15
I2
sba(iCollectionSetFactory
Collection
p1248
(dp1249
g7
(lp1250
I0
aI0
aI0
aI0
aI0
aI0
aI1
aI1
aI0
aI1
aI1
aI0
aI0
aI0
aI0
asg9
(lp1251
sg11
I00
sg12
I2
sg13
I8
sg14
Nsg15
I4
sba(iCollectionSetFactory
Collection
p1252
(dp1253
g7
(lp1254
I0
aI0
aI0
aI0
aI0
aI0
aI1
aI1
aI1
aI0
aI0
aI1
aI0
aI0
aI0
asg9
(lp1255
sg11
I00
sg12
I2
sg13
I8
sg14
Nsg15
I1
sba(iCollectionSetFactory
Collection
p1256
(dp1257
g7
(lp1258
I0
aI0
aI0
aI0
aI0
aI1
aI0
aI0
aI1
aI1
aI0
aI1
aI0
aI0
aI0
asg9
(lp1259
sg11
I00
sg12
I2
sg13
I8
sg14
Nsg15
I5
sba(iCollectionSetFactory
Collection
p1260
(dp1261
g7
(lp1262
I0
aI0
aI0
aI0
aI1
aI1
aI0
aI0
aI1
aI1
aI0
aI0
aI0
aI0
aI0
asg9
(lp1263
sg11
I00
sg12
I2
sg13
I8
sg14
Nsg15
I3
sba(iCollectionSetFactory
Collection
p1264
(dp1265
g7
(lp1266
I0
aI0
aI0
aI1
aI0
aI0
aI0
aI1
aI0
aI1
aI1
aI0
aI0
aI0
aI0
asg9
(lp1267
sg11
I00
sg12
I2
sg13
I8
sg14
Nsg15
I2
sba(iCollectionSetFactory
Collection
p1268
(dp1269
g7
(lp1270
I0
aI0
aI0
aI1
aI0
aI0
aI1
aI1
aI1
aI0
aI0
aI0
aI0
aI0
aI0
asg9
(lp1271
sg11
I00
sg12
I2
sg13
I8
sg14
Nsg15
I3
sba(iCollectionSetFactory
Collection
p1272
(dp1273
g7
(lp1274
I0
aI0
aI0
aI1
aI0
aI1
aI0
aI0
aI1
aI0
aI1
aI0
aI0
aI0
aI0
asg9
(lp1275
sg11
I00
sg12
I2
sg13
I8
sg14
Nsg15
I2
sba(iCollectionSetFactory
Collection
p1276
(dp1277
g7
(lp1278
I0
aI0
aI0
aI1
aI0
aI1
aI0
aI1
aI0
aI1
aI0
aI0
aI0
aI0
aI0
asg9
(lp1279
sg11
I00
sg12
I2
sg13
I8
sg14
Nsg15
I1
sba(iCollectionSetFactory
Collection
p1280
(dp1281
g7
(lp1282
I0
aI0
aI0
aI1
aI1
aI0
aI1
aI0
aI0
aI0
aI1
aI0
aI0
aI0
aI0
asg9
(lp1283
sg11
I00
sg12
I2
sg13
I8
sg14
Nsg15
I2
sba(iCollectionSetFactory
Collection
p1284
(dp1285
g7
(lp1286
I0
aI1
aI0
aI0
aI0
aI0
aI0
aI1
aI0
aI1
aI1
aI0
aI0
aI0
aI0
asg9
(lp1287
sg11
I00
sg12
I2
sg13
I8
sg14
Nsg15
I5
sba(iCollectionSetFactory
Collection
p1288
(dp1289
g7
(lp1290
I0
aI1
aI0
aI0
aI0
aI1
aI0
aI0
aI0
aI1
aI0
aI1
aI0
aI0
aI0
asg9
(lp1291
sg11
I00
sg12
I2
sg13
I8
sg14
Nsg15
I2
sba(iCollectionSetFactory
Collection
p1292
(dp1293
g7
(lp1294
I0
aI1
aI0
aI0
aI1
aI0
aI1
aI0
aI1
aI0
aI0
aI0
aI0
aI0
aI0
asg9
(lp1295
sg11
I00
sg12
I2
sg13
I8
sg14
Nsg15
I1
sba(iCollectionSetFactory
Collection
p1296
(dp1297
g7
(lp1298
I0
aI1
aI0
aI1
aI0
aI0
aI0
aI0
aI1
aI0
aI1
aI0
aI0
aI0
aI0
asg9
(lp1299
sg11
I00
sg12
I2
sg13
I8
sg14
Nsg15
I4
sba(iCollectionSetFactory
Collection
p1300
(dp1301
g7
(lp1302
I0
aI1
aI0
aI1
aI0
aI0
aI0
aI1
aI1
aI0
aI0
aI0
aI0
aI0
aI0
asg9
(lp1303
sg11
I00
sg12
I2
sg13
I8
sg14
Nsg15
I4
sba(iCollectionSetFactory
Collection
p1304
(dp1305
g7
(lp1306
I0
aI1
aI0
aI1
aI0
aI1
aI0
aI0
aI0
aI1
aI0
aI0
aI0
aI0
aI0
asg9
(lp1307
sg11
I00
sg12
I2
sg13
I8
sg14
Nsg15
I4
sba(iCollectionSetFactory
Collection
p1308
(dp1309
g7
(lp1310
I0
aI1
aI0
aI1
aI0
aI1
aI0
aI1
aI0
aI0
aI0
aI0
aI0
aI0
aI0
asg9
(lp1311
sg11
I00
sg12
I2
sg13
I8
sg14
Nsg15
I4
sba(iCollectionSetFactory
Collection
p1312
(dp1313
g7
(lp1314
I1
aI0
aI0
aI0
aI0
aI1
aI0
aI1
aI0
aI0
aI1
aI0
aI0
aI0
aI0
asg9
(lp1315
sg11
I00
sg12
I2
sg13
I8
sg14
Nsg15
I4
sba(iCollectionSetFactory
Collection
p1316
(dp1317
g7
(lp1318
I1
aI0
aI0
aI0
aI0
aI1
aI1
aI0
aI0
aI0
aI1
aI0
aI0
aI0
aI0
asg9
(lp1319
sg11
I00
sg12
I2
sg13
I8
sg14
Nsg15
I2
sba(iCollectionSetFactory
Collection
p1320
(dp1321
g7
(lp1322
I1
aI0
aI0
aI0
aI1
aI0
aI0
aI1
aI0
aI0
aI1
aI0
aI0
aI0
aI0
asg9
(lp1323
sg11
I00
sg12
I2
sg13
I8
sg14
Nsg15
I3
sba(iCollectionSetFactory
Collection
p1324
(dp1325
g7
(lp1326
I0
aI0
aI0
aI0
aI1
aI0
aI0
aI0
aI1
aI0
aI1
aI1
aI0
aI0
aI0
asg9
(lp1327
sg11
I00
sg12
I2
sg13
I7
sg14
Nsg15
I1
sba(iCollectionSetFactory
Collection
p1328
(dp1329
g7
(lp1330
I0
aI0
aI0
aI1
aI0
aI0
aI0
aI0
aI1
aI0
aI1
aI1
aI0
aI0
aI0
asg9
(lp1331
sg11
I00
sg12
I2
sg13
I7
sg14
Nsg15
I2
sba(iCollectionSetFactory
Collection
p1332
(dp1333
g7
(lp1334
I0
aI0
aI0
aI1
aI0
aI0
aI0
aI0
aI1
aI1
aI0
aI1
aI0
aI0
aI0
asg9
(lp1335
sg11
I00
sg12
I2
sg13
I7
sg14
Nsg15
I3
sba(iCollectionSetFactory
Collection
p1336
(dp1337
g7
(lp1338
I0
aI0
aI0
aI1
aI0
aI0
aI1
aI0
aI1
aI0
aI1
aI0
aI0
aI0
aI0
asg9
(lp1339
sg11
I00
sg12
I2
sg13
I7
sg14
Nsg15
I2
sba(iCollectionSetFactory
Collection
p1340
(dp1341
g7
(lp1342
I0
aI0
aI0
aI1
aI0
aI1
aI0
aI0
aI0
aI1
aI1
aI0
aI0
aI0
aI0
asg9
(lp1343
sg11
I00
sg12
I2
sg13
I7
sg14
Nsg15
I2
sba(iCollectionSetFactory
Collection
p1344
(dp1345
g7
(lp1346
I0
aI0
aI0
aI1
aI0
aI1
aI1
aI0
aI0
aI0
aI0
aI1
aI0
aI0
aI0
asg9
(lp1347
sg11
I00
sg12
I2
sg13
I7
sg14
Nsg15
I2
sba(iCollectionSetFactory
Collection
p1348
(dp1349
g7
(lp1350
I0
aI0
aI0
aI1
aI1
aI1
aI0
aI0
aI0
aI0
aI1
aI0
aI0
aI0
aI0
asg9
(lp1351
sg11
I00
sg12
I2
sg13
I7
sg14
Nsg15
I1
sba(iCollectionSetFactory
Collection
p1352
(dp1353
g7
(lp1354
I0
aI0
aI0
aI1
aI1
aI1
aI0
aI0
aI0
aI1
aI0
aI0
aI0
aI0
aI0
asg9
(lp1355
sg11
I00
sg12
I2
sg13
I7
sg14
Nsg15
I2
sba(iCollectionSetFactory
Collection
p1356
(dp1357
g7
(lp1358
I0
aI0
aI0
aI1
aI1
aI1
aI0
aI0
aI1
aI0
aI0
aI0
aI0
aI0
aI0
asg9
(lp1359
sg11
I00
sg12
I2
sg13
I7
sg14
Nsg15
I4
sba(iCollectionSetFactory
Collection
p1360
(dp1361
g7
(lp1362
I0
aI1
aI0
aI0
aI0
aI0
aI0
aI1
aI1
aI0
aI1
aI0
aI0
aI0
aI0
asg9
(lp1363
sg11
I00
sg12
I2
sg13
I7
sg14
Nsg15
I3
sba(iCollectionSetFactory
Collection
p1364
(dp1365
g7
(lp1366
I0
aI1
aI0
aI0
aI0
aI1
aI0
aI1
aI1
aI0
aI0
aI0
aI0
aI0
aI0
asg9
(lp1367
sg11
I00
sg12
I2
sg13
I7
sg14
Nsg15
I3
sba(iCollectionSetFactory
Collection
p1368
(dp1369
g7
(lp1370
I0
aI1
aI0
aI0
aI0
aI1
aI1
aI0
aI0
aI1
aI0
aI0
aI0
aI0
aI0
asg9
(lp1371
sg11
I00
sg12
I2
sg13
I7
sg14
Nsg15
I1
sba(iCollectionSetFactory
Collection
p1372
(dp1373
g7
(lp1374
I0
aI1
aI0
aI1
aI0
aI0
aI0
aI1
aI0
aI0
aI1
aI0
aI0
aI0
aI0
asg9
(lp1375
sg11
I00
sg12
I2
sg13
I7
sg14
Nsg15
I3
sba(iCollectionSetFactory
Collection
p1376
(dp1377
g7
(lp1378
I0
aI1
aI0
aI1
aI0
aI1
aI0
aI0
aI1
aI0
aI0
aI0
aI0
aI0
aI0
asg9
(lp1379
sg11
I00
sg12
I2
sg13
I7
sg14
Nsg15
I3
sba(iCollectionSetFactory
Collection
p1380
(dp1381
g7
(lp1382
I1
aI0
aI0
aI0
aI0
aI0
aI0
aI1
aI0
aI1
aI1
aI0
aI0
aI0
aI0
asg9
(lp1383
sg11
I00
sg12
I2
sg13
I7
sg14
Nsg15
I4
sba(iCollectionSetFactory
Collection
p1384
(dp1385
g7
(lp1386
I1
aI0
aI0
aI0
aI0
aI0
aI1
aI0
aI0
aI0
aI1
aI1
aI0
aI0
aI0
asg9
(lp1387
sg11
I00
sg12
I2
sg13
I7
sg14
Nsg15
I4
sba(iCollectionSetFactory
Collection
p1388
(dp1389
g7
(lp1390
I1
aI0
aI0
aI0
aI0
aI1
aI1
aI0
aI0
aI1
aI0
aI0
aI0
aI0
aI0
asg9
(lp1391
sg11
I00
sg12
I2
sg13
I7
sg14
Nsg15
I2
sba(iCollectionSetFactory
Collection
p1392
(dp1393
g7
(lp1394
I1
aI0
aI0
aI0
aI1
aI0
aI1
aI0
aI1
aI0
aI0
aI0
aI0
aI0
aI0
asg9
(lp1395
sg11
I00
sg12
I2
sg13
I7
sg14
Nsg15
I3
sba(iCollectionSetFactory
Collection
p1396
(dp1397
g7
(lp1398
I1
aI0
aI0
aI0
aI1
aI1
aI0
aI0
aI0
aI1
aI0
aI0
aI0
aI0
aI0
asg9
(lp1399
sg11
I00
sg12
I2
sg13
I7
sg14
Nsg15
I2
sba(iCollectionSetFactory
Collection
p1400
(dp1401
g7
(lp1402
I1
aI0
aI0
aI1
aI0
aI0
aI0
aI0
aI1
aI1
aI0
aI0
aI0
aI0
aI0
asg9
(lp1403
sg11
I00
sg12
I2
sg13
I7
sg14
Nsg15
I4
sba(iCollectionSetFactory
Collection
p1404
(dp1405
g7
(lp1406
I0
aI0
aI0
aI0
aI0
aI0
aI0
aI1
aI0
aI1
aI1
aI1
aI0
aI0
aI0
asg9
(lp1407
sg11
I00
sg12
I2
sg13
I6
sg14
Nsg15
I2
sba(iCollectionSetFactory
Collection
p1408
(dp1409
g7
(lp1410
I0
aI0
aI0
aI0
aI0
aI0
aI1
aI0
aI1
aI0
aI1
aI1
aI0
aI0
aI0
asg9
(lp1411
sg11
I00
sg12
I2
sg13
I6
sg14
Nsg15
I1
sba(iCollectionSetFactory
Collection
p1412
(dp1413
g7
(lp1414
I0
aI0
aI0
aI0
aI0
aI1
aI1
aI0
aI1
aI1
aI0
aI0
aI0
aI0
aI0
asg9
(lp1415
sg11
I00
sg12
I2
sg13
I6
sg14
Nsg15
I1
sba(iCollectionSetFactory
Collection
p1416
(dp1417
g7
(lp1418
I0
aI0
aI0
aI0
aI0
aI1
aI1
aI1
aI0
aI1
aI0
aI0
aI0
aI0
aI0
asg9
(lp1419
sg11
I00
sg12
I2
sg13
I6
sg14
Nsg15
I2
sba(iCollectionSetFactory
Collection
p1420
(dp1421
g7
(lp1422
I0
aI0
aI0
aI1
aI0
aI1
aI0
aI0
aI0
aI1
aI0
aI1
aI0
aI0
aI0
asg9
(lp1423
sg11
I00
sg12
I2
sg13
I6
sg14
Nsg15
I3
sba(iCollectionSetFactory
Collection
p1424
(dp1425
g7
(lp1426
I0
aI0
aI0
aI1
aI0
aI1
aI0
aI1
aI0
aI0
aI0
aI1
aI0
aI0
aI0
asg9
(lp1427
sg11
I00
sg12
I2
sg13
I6
sg14
Nsg15
I2
sba(iCollectionSetFactory
Collection
p1428
(dp1429
g7
(lp1430
I0
aI0
aI0
aI1
aI1
aI0
aI1
aI0
aI1
aI0
aI0
aI0
aI0
aI0
aI0
asg9
(lp1431
sg11
I00
sg12
I2
sg13
I6
sg14
Nsg15
I2
sba(iCollectionSetFactory
Collection
p1432
(dp1433
g7
(lp1434
I0
aI0
aI0
aI1
aI1
aI1
aI0
aI0
aI0
aI0
aI0
aI1
aI0
aI0
aI0
asg9
(lp1435
sg11
I00
sg12
I2
sg13
I6
sg14
Nsg15
I1
sba(iCollectionSetFactory
Collection
p1436
(dp1437
g7
(lp1438
I0
aI1
aI0
aI0
aI0
aI0
aI0
aI0
aI0
aI1
aI1
aI1
aI0
aI0
aI0
asg9
(lp1439
sg11
I00
sg12
I2
sg13
I6
sg14
Nsg15
I4
sba(iCollectionSetFactory
Collection
p1440
(dp1441
g7
(lp1442
I0
aI1
aI0
aI0
aI0
aI0
aI0
aI1
aI0
aI0
aI1
aI1
aI0
aI0
aI0
asg9
(lp1443
sg11
I00
sg12
I2
sg13
I6
sg14
Nsg15
I3
sba(iCollectionSetFactory
Collection
p1444
(dp1445
g7
(lp1446
I0
aI1
aI0
aI0
aI0
aI1
aI0
aI0
aI1
aI1
aI0
aI0
aI0
aI0
aI0
asg9
(lp1447
sg11
I00
sg12
I2
sg13
I6
sg14
Nsg15
I2
sba(iCollectionSetFactory
Collection
p1448
(dp1449
g7
(lp1450
I0
aI1
aI0
aI0
aI0
aI1
aI0
aI1
aI0
aI1
aI0
aI0
aI0
aI0
aI0
asg9
(lp1451
sg11
I00
sg12
I2
sg13
I6
sg14
Nsg15
I2
sba(iCollectionSetFactory
Collection
p1452
(dp1453
g7
(lp1454
I0
aI1
aI0
aI1
aI0
aI0
aI0
aI0
aI1
aI0
aI0
aI1
aI0
aI0
aI0
asg9
(lp1455
sg11
I00
sg12
I2
sg13
I6
sg14
Nsg15
I4
sba(iCollectionSetFactory
Collection
p1456
(dp1457
g7
(lp1458
I1
aI0
aI0
aI0
aI0
aI0
aI1
aI0
aI0
aI1
aI0
aI1
aI0
aI0
aI0
asg9
(lp1459
sg11
I00
sg12
I2
sg13
I6
sg14
Nsg15
I2
sba(iCollectionSetFactory
Collection
p1460
(dp1461
g7
(lp1462
I1
aI0
aI0
aI0
aI0
aI0
aI1
aI1
aI0
aI0
aI0
aI1
aI0
aI0
aI0
asg9
(lp1463
sg11
I00
sg12
I2
sg13
I6
sg14
Nsg15
I3
sba(iCollectionSetFactory
Collection
p1464
(dp1465
g7
(lp1466
I1
aI0
aI0
aI0
aI0
aI1
aI0
aI0
aI0
aI1
aI1
aI0
aI0
aI0
aI0
asg9
(lp1467
sg11
I00
sg12
I2
sg13
I6
sg14
Nsg15
I3
sba(iCollectionSetFactory
Collection
p1468
(dp1469
g7
(lp1470
I1
aI0
aI0
aI0
aI0
aI1
aI0
aI1
aI1
aI0
aI0
aI0
aI0
aI0
aI0
asg9
(lp1471
sg11
I00
sg12
I2
sg13
I6
sg14
Nsg15
I2
sba(iCollectionSetFactory
Collection
p1472
(dp1473
g7
(lp1474
I1
aI0
aI0
aI0
aI0
aI1
aI1
aI0
aI0
aI0
aI0
aI1
aI0
aI0
aI0
asg9
(lp1475
sg11
I00
sg12
I2
sg13
I6
sg14
Nsg15
I1
sba(iCollectionSetFactory
Collection
p1476
(dp1477
g7
(lp1478
I1
aI0
aI0
aI0
aI0
aI1
aI1
aI1
aI0
aI0
aI0
aI0
aI0
aI0
aI0
asg9
(lp1479
sg11
I00
sg12
I2
sg13
I6
sg14
Nsg15
I2
sba(iCollectionSetFactory
Collection
p1480
(dp1481
g7
(lp1482
I1
aI0
aI0
aI0
aI1
aI0
aI1
aI0
aI0
aI0
aI0
aI1
aI0
aI0
aI0
asg9
(lp1483
sg11
I00
sg12
I2
sg13
I6
sg14
Nsg15
I1
sba(iCollectionSetFactory
Collection
p1484
(dp1485
g7
(lp1486
I1
aI0
aI0
aI0
aI1
aI0
aI1
aI1
aI0
aI0
aI0
aI0
aI0
aI0
aI0
asg9
(lp1487
sg11
I00
sg12
I2
sg13
I6
sg14
Nsg15
I1
sba(iCollectionSetFactory
Collection
p1488
(dp1489
g7
(lp1490
I1
aI0
aI0
aI1
aI0
aI0
aI1
aI0
aI1
aI0
aI0
aI0
aI0
aI0
aI0
asg9
(lp1491
sg11
I00
sg12
I2
sg13
I6
sg14
Nsg15
I3
sba(iCollectionSetFactory
Collection
p1492
(dp1493
g7
(lp1494
I1
aI0
aI0
aI1
aI0
aI0
aI1
aI1
aI0
aI0
aI0
aI0
aI0
aI0
aI0
asg9
(lp1495
sg11
I00
sg12
I2
sg13
I6
sg14
Nsg15
I3
sba(iCollectionSetFactory
Collection
p1496
(dp1497
g7
(lp1498
I1
aI0
aI0
aI1
aI1
aI0
aI1
aI0
aI0
aI0
aI0
aI0
aI0
aI0
aI0
asg9
(lp1499
sg11
I00
sg12
I2
sg13
I6
sg14
Nsg15
I4
sba(iCollectionSetFactory
Collection
p1500
(dp1501
g7
(lp1502
I1
aI1
aI0
aI0
aI0
aI0
aI0
aI0
aI1
aI0
aI1
aI0
aI0
aI0
aI0
asg9
(lp1503
sg11
I00
sg12
I2
sg13
I6
sg14
Nsg15
I3
sba(iCollectionSetFactory
Collection
p1504
(dp1505
g7
(lp1506
I1
aI1
aI0
aI0
aI0
aI1
aI0
aI0
aI1
aI0
aI0
aI0
aI0
aI0
aI0
asg9
(lp1507
sg11
I00
sg12
I2
sg13
I6
sg14
Nsg15
I3
sba(iCollectionSetFactory
Collection
p1508
(dp1509
g7
(lp1510
I1
aI1
aI0
aI0
aI0
aI1
aI1
aI0
aI0
aI0
aI0
aI0
aI0
aI0
aI0
asg9
(lp1511
sg11
I00
sg12
I2
sg13
I6
sg14
Nsg15
I1
sba(iCollectionSetFactory
Collection
p1512
(dp1513
g7
(lp1514
I0
aI0
aI0
aI0
aI0
aI0
aI0
aI1
aI1
aI1
aI0
aI1
aI0
aI0
aI0
asg9
(lp1515
sg11
I00
sg12
I2
sg13
I5
sg14
Nsg15
I1
sba(iCollectionSetFactory
Collection
p1516
(dp1517
g7
(lp1518
I0
aI0
aI0
aI0
aI0
aI0
aI1
aI0
aI0
aI1
aI1
aI1
aI0
aI0
aI0
asg9
(lp1519
sg11
I00
sg12
I2
sg13
I5
sg14
Nsg15
I1
sba(iCollectionSetFactory
Collection
p1520
(dp1521
g7
(lp1522
I0
aI0
aI0
aI0
aI0
aI0
aI1
aI1
aI0
aI1
aI0
aI1
aI0
aI0
aI0
asg9
(lp1523
sg11
I00
sg12
I2
sg13
I5
sg14
Nsg15
I1
sba(iCollectionSetFactory
Collection
p1524
(dp1525
g7
(lp1526
I0
aI0
aI0
aI0
aI0
aI1
aI0
aI1
aI0
aI1
aI0
aI1
aI0
aI0
aI0
asg9
(lp1527
sg11
I00
sg12
I2
sg13
I5
sg14
Nsg15
I2
sba(iCollectionSetFactory
Collection
p1528
(dp1529
g7
(lp1530
I0
aI0
aI0
aI0
aI0
aI1
aI1
aI0
aI0
aI1
aI1
aI0
aI0
aI0
aI0
asg9
(lp1531
sg11
I00
sg12
I2
sg13
I5
sg14
Nsg15
I2
sba(iCollectionSetFactory
Collection
p1532
(dp1533
g7
(lp1534
I0
aI0
aI0
aI0
aI1
aI0
aI0
aI1
aI0
aI1
aI1
aI0
aI0
aI0
aI0
asg9
(lp1535
sg11
I00
sg12
I2
sg13
I5
sg14
Nsg15
I3
sba(iCollectionSetFactory
Collection
p1536
(dp1537
g7
(lp1538
I0
aI0
aI0
aI0
aI1
aI0
aI1
aI1
aI0
aI1
aI0
aI0
aI0
aI0
aI0
asg9
(lp1539
sg11
I00
sg12
I2
sg13
I5
sg14
Nsg15
I1
sba(iCollectionSetFactory
Collection
p1540
(dp1541
g7
(lp1542
I0
aI0
aI0
aI0
aI1
aI1
aI0
aI1
aI0
aI1
aI0
aI0
aI0
aI0
aI0
asg9
(lp1543
sg11
I00
sg12
I2
sg13
I5
sg14
Nsg15
I1
sba(iCollectionSetFactory
Collection
p1544
(dp1545
g7
(lp1546
I0
aI0
aI0
aI1
aI0
aI0
aI0
aI1
aI0
aI1
aI0
aI1
aI0
aI0
aI0
asg9
(lp1547
sg11
I00
sg12
I2
sg13
I5
sg14
Nsg15
I1
sba(iCollectionSetFactory
Collection
p1548
(dp1549
g7
(lp1550
I0
aI0
aI0
aI1
aI0
aI0
aI1
aI1
aI0
aI0
aI0
aI1
aI0
aI0
aI0
asg9
(lp1551
sg11
I00
sg12
I2
sg13
I5
sg14
Nsg15
I2
sba(iCollectionSetFactory
Collection
p1552
(dp1553
g7
(lp1554
I0
aI0
aI0
aI1
aI1
aI0
aI0
aI0
aI0
aI0
aI1
aI1
aI0
aI0
aI0
asg9
(lp1555
sg11
I00
sg12
I2
sg13
I5
sg14
Nsg15
I1
sba(iCollectionSetFactory
Collection
p1556
(dp1557
g7
(lp1558
I0
aI0
aI0
aI1
aI1
aI0
aI0
aI0
aI1
aI0
aI0
aI1
aI0
aI0
aI0
asg9
(lp1559
sg11
I00
sg12
I2
sg13
I5
sg14
Nsg15
I2
sba(iCollectionSetFactory
Collection
p1560
(dp1561
g7
(lp1562
I0
aI1
aI0
aI0
aI0
aI0
aI0
aI1
aI1
aI1
aI0
aI0
aI0
aI0
aI0
asg9
(lp1563
sg11
I00
sg12
I2
sg13
I5
sg14
Nsg15
I1
sba(iCollectionSetFactory
Collection
p1564
(dp1565
g7
(lp1566
I0
aI1
aI0
aI0
aI0
aI1
aI0
aI0
aI0
aI0
aI1
aI1
aI0
aI0
aI0
asg9
(lp1567
sg11
I00
sg12
I2
sg13
I5
sg14
Nsg15
I2
sba(iCollectionSetFactory
Collection
p1568
(dp1569
g7
(lp1570
I0
aI1
aI0
aI0
aI0
aI1
aI0
aI0
aI0
aI1
aI1
aI0
aI0
aI0
aI0
asg9
(lp1571
sg11
I00
sg12
I2
sg13
I5
sg14
Nsg15
I2
sba(iCollectionSetFactory
Collection
p1572
(dp1573
g7
(lp1574
I0
aI1
aI0
aI0
aI0
aI1
aI0
aI0
aI1
aI0
aI1
aI0
aI0
aI0
aI0
asg9
(lp1575
sg11
I00
sg12
I2
sg13
I5
sg14
Nsg15
I1
sba(iCollectionSetFactory
Collection
p1576
(dp1577
g7
(lp1578
I0
aI1
aI0
aI0
aI0
aI1
aI0
aI1
aI0
aI0
aI0
aI1
aI0
aI0
aI0
asg9
(lp1579
sg11
I00
sg12
I2
sg13
I5
sg14
Nsg15
I1
sba(iCollectionSetFactory
Collection
p1580
(dp1581
g7
(lp1582
I0
aI1
aI0
aI1
aI0
aI0
aI0
aI0
aI1
aI1
aI0
aI0
aI0
aI0
aI0
asg9
(lp1583
(iCollectionSetFactory
CollectionLink
p1584
(dp1585
g75
Nsg76
g98
sg77
g78
sg79
Nsba(iCollectionSetFactory
CollectionLink
p1586
(dp1587
g75
Nsg76
g290
sg77
g78
sg79
Nsbasg11
I00
sg12
I0
sg13
I5
sg14
F30.0
sg15
I1
sba(iCollectionSetFactory
Collection
p1588
(dp1589
g7
(lp1590
I0
aI1
aI0
aI1
aI0
aI0
aI0
aI1
aI0
aI1
aI0
aI0
aI0
aI0
aI0
asg9
(lp1591
sg11
I00
sg12
I2
sg13
I5
sg14
Nsg15
I1
sba(iCollectionSetFactory
Collection
p1592
(dp1593
g7
(lp1594
I0
aI1
aI0
aI1
aI0
aI1
aI0
aI0
aI0
aI0
aI0
aI1
aI0
aI0
aI0
asg9
(lp1595
sg11
I00
sg12
I2
sg13
I5
sg14
Nsg15
I1
sba(iCollectionSetFactory
Collection
p1596
(dp1597
g7
(lp1598
I0
aI1
aI0
aI1
aI1
aI0
aI0
aI1
aI0
aI0
aI0
aI0
aI0
aI0
aI0
asg9
(lp1599
sg11
I00
sg12
I2
sg13
I5
sg14
Nsg15
I2
sba(iCollectionSetFactory
Collection
p1600
(dp1601
g7
(lp1602
I1
aI0
aI0
aI0
aI0
aI0
aI0
aI0
aI0
aI1
aI1
aI1
aI0
aI0
aI0
asg9
(lp1603
sg11
I00
sg12
I2
sg13
I5
sg14
Nsg15
I2
sba(iCollectionSetFactory
Collection
p1604
(dp1605
g7
(lp1606
I1
aI0
aI0
aI0
aI0
aI0
aI0
aI1
aI0
aI0
aI1
aI1
aI0
aI0
aI0
asg9
(lp1607
sg11
I00
sg12
I2
sg13
I5
sg14
Nsg15
I2
sba(iCollectionSetFactory
Collection
p1608
(dp1609
g7
(lp1610
I1
aI0
aI0
aI0
aI0
aI0
aI1
aI0
aI0
aI1
aI1
aI0
aI0
aI0
aI0
asg9
(lp1611
sg11
I00
sg12
I2
sg13
I5
sg14
Nsg15
I2
sba(iCollectionSetFactory
Collection
p1612
(dp1613
g7
(lp1614
I1
aI0
aI0
aI0
aI0
aI0
aI1
aI0
aI1
aI0
aI0
aI1
aI0
aI0
aI0
asg9
(lp1615
sg11
I00
sg12
I2
sg13
I5
sg14
Nsg15
I2
sba(iCollectionSetFactory
Collection
p1616
(dp1617
g7
(lp1618
I1
aI0
aI0
aI0
aI0
aI1
aI0
aI0
aI0
aI1
aI0
aI1
aI0
aI0
aI0
asg9
(lp1619
sg11
I00
sg12
I2
sg13
I5
sg14
Nsg15
I1
sba(iCollectionSetFactory
Collection
p1620
(dp1621
g7
(lp1622
I1
aI0
aI0
aI0
aI0
aI1
aI0
aI0
aI1
aI0
aI1
aI0
aI0
aI0
aI0
asg9
(lp1623
sg11
I00
sg12
I2
sg13
I5
sg14
Nsg15
I1
sba(iCollectionSetFactory
Collection
p1624
(dp1625
g7
(lp1626
I1
aI0
aI0
aI0
aI0
aI1
aI0
aI0
aI1
aI1
aI0
aI0
aI0
aI0
aI0
asg9
(lp1627
sg11
I00
sg12
I2
sg13
I5
sg14
Nsg15
I2
sba(iCollectionSetFactory
Collection
p1628
(dp1629
g7
(lp1630
I1
aI0
aI0
aI0
aI1
aI1
aI0
aI0
aI1
aI0
aI0
aI0
aI0
aI0
aI0
asg9
(lp1631
sg11
I00
sg12
I2
sg13
I5
sg14
Nsg15
I1
sba(iCollectionSetFactory
Collection
p1632
(dp1633
g7
(lp1634
I1
aI0
aI0
aI1
aI0
aI1
aI0
aI1
aI0
aI0
aI0
aI0
aI0
aI0
aI0
asg9
(lp1635
sg11
I00
sg12
I2
sg13
I5
sg14
Nsg15
I3
sba(iCollectionSetFactory
Collection
p1636
(dp1637
g7
(lp1638
I1
aI0
aI0
aI1
aI1
aI0
aI0
aI0
aI1
aI0
aI0
aI0
aI0
aI0
aI0
asg9
(lp1639
sg11
I00
sg12
I2
sg13
I5
sg14
Nsg15
I2
sba(iCollectionSetFactory
Collection
p1640
(dp1641
g7
(lp1642
I1
aI1
aI0
aI0
aI0
aI0
aI0
aI0
aI0
aI1
aI1
aI0
aI0
aI0
aI0
asg9
(lp1643
sg11
I00
sg12
I2
sg13
I5
sg14
Nsg15
I2
sba(iCollectionSetFactory
Collection
p1644
(dp1645
g7
(lp1646
I1
aI1
aI0
aI0
aI0
aI0
aI0
aI1
aI0
aI0
aI1
aI0
aI0
aI0
aI0
asg9
(lp1647
sg11
I00
sg12
I2
sg13
I5
sg14
Nsg15
I2
sba(iCollectionSetFactory
Collection
p1648
(dp1649
g7
(lp1650
I1
aI1
aI0
aI0
aI0
aI1
aI0
aI0
aI0
aI0
aI1
aI0
aI0
aI0
aI0
asg9
(lp1651
sg11
I00
sg12
I2
sg13
I5
sg14
Nsg15
I2
sba(iCollectionSetFactory
Collection
p1652
(dp1653
g7
(lp1654
I1
aI1
aI0
aI0
aI0
aI1
aI0
aI1
aI0
aI0
aI0
aI0
aI0
aI0
aI0
asg9
(lp1655
sg11
I00
sg12
I2
sg13
I5
sg14
Nsg15
I2
sba(iCollectionSetFactory
Collection
p1656
(dp1657
g7
(lp1658
I1
aI1
aI0
aI1
aI0
aI0
aI0
aI0
aI1
aI0
aI0
aI0
aI0
aI0
aI0
asg9
(lp1659
sg11
I00
sg12
I2
sg13
I5
sg14
Nsg15
I2
sba(iCollectionSetFactory
Collection
p1660
(dp1661
g7
(lp1662
I1
aI1
aI0
aI1
aI0
aI1
aI0
aI0
aI0
aI0
aI0
aI0
aI0
aI0
aI0
asg9
(lp1663
sg11
I00
sg12
I2
sg13
I5
sg14
Nsg15
I2
sba(iCollectionSetFactory
Collection
p1664
(dp1665
g7
(lp1666
I0
aI0
aI0
aI0
aI1
aI0
aI1
aI0
aI0
aI1
aI1
aI0
aI0
aI0
aI0
asg9
(lp1667
sg11
I00
sg12
I2
sg13
I4
sg14
Nsg15
I1
sba(iCollectionSetFactory
Collection
p1668
(dp1669
g7
(lp1670
I0
aI0
aI0
aI0
aI1
aI1
aI0
aI0
aI0
aI1
aI1
aI0
aI0
aI0
aI0
asg9
(lp1671
sg11
I00
sg12
I2
sg13
I4
sg14
Nsg15
I1
sba(iCollectionSetFactory
Collection
p1672
(dp1673
g7
(lp1674
I0
aI0
aI0
aI1
aI0
aI0
aI1
aI0
aI0
aI1
aI0
aI1
aI0
aI0
aI0
asg9
(lp1675
sg11
I00
sg12
I2
sg13
I4
sg14
Nsg15
I2
sba(iCollectionSetFactory
Collection
p1676
(dp1677
g7
(lp1678
I0
aI0
aI0
aI1
aI0
aI0
aI1
aI0
aI1
aI0
aI0
aI1
aI0
aI0
aI0
asg9
(lp1679
sg11
I00
sg12
I2
sg13
I4
sg14
Nsg15
I2
sba(iCollectionSetFactory
Collection
p1680
(dp1681
g7
(lp1682
I0
aI0
aI0
aI1
aI0
aI1
aI1
aI0
aI1
aI0
aI0
aI0
aI0
aI0
aI0
asg9
(lp1683
sg11
I00
sg12
I2
sg13
I4
sg14
Nsg15
I1
sba(iCollectionSetFactory
Collection
p1684
(dp1685
g7
(lp1686
I0
aI1
aI0
aI0
aI0
aI0
aI0
aI0
aI1
aI1
aI1
aI0
aI0
aI0
aI0
asg9
(lp1687
sg11
I00
sg12
I2
sg13
I4
sg14
Nsg15
I1
sba(iCollectionSetFactory
Collection
p1688
(dp1689
g7
(lp1690
I0
aI1
aI0
aI0
aI0
aI0
aI1
aI0
aI0
aI0
aI1
aI1
aI0
aI0
aI0
asg9
(lp1691
sg11
I00
sg12
I2
sg13
I4
sg14
Nsg15
I1
sba(iCollectionSetFactory
Collection
p1692
(dp1693
g7
(lp1694
I0
aI1
aI0
aI0
aI0
aI1
aI0
aI0
aI1
aI0
aI0
aI1
aI0
aI0
aI0
asg9
(lp1695
sg11
I00
sg12
I2
sg13
I4
sg14
Nsg15
I1
sba(iCollectionSetFactory
Collection
p1696
(dp1697
g7
(lp1698
I0
aI1
aI0
aI0
aI1
aI0
aI0
aI0
aI0
aI0
aI1
aI1
aI0
aI0
aI0
asg9
(lp1699
sg11
I00
sg12
I2
sg13
I4
sg14
Nsg15
I1
sba(iCollectionSetFactory
Collection
p1700
(dp1701
g7
(lp1702
I0
aI1
aI0
aI0
aI1
aI0
aI0
aI0
aI1
aI0
aI0
aI1
aI0
aI0
aI0
asg9
(lp1703
sg11
I00
sg12
I2
sg13
I4
sg14
Nsg15
I1
sba(iCollectionSetFactory
Collection
p1704
(dp1705
g7
(lp1706
I0
aI1
aI0
aI0
aI1
aI0
aI0
aI1
aI0
aI0
aI0
aI1
aI0
aI0
aI0
asg9
(lp1707
sg11
I00
sg12
I2
sg13
I4
sg14
Nsg15
I1
sba(iCollectionSetFactory
Collection
p1708
(dp1709
g7
(lp1710
I0
aI1
aI0
aI1
aI0
aI0
aI0
aI0
aI0
aI0
aI1
aI1
aI0
aI0
aI0
asg9
(lp1711
sg11
I00
sg12
I2
sg13
I4
sg14
Nsg15
I2
sba(iCollectionSetFactory
Collection
p1712
(dp1713
g7
(lp1714
I0
aI1
aI0
aI1
aI0
aI0
aI0
aI0
aI0
aI1
aI0
aI1
aI0
aI0
aI0
asg9
(lp1715
sg11
I00
sg12
I2
sg13
I4
sg14
Nsg15
I1
sba(iCollectionSetFactory
Collection
p1716
(dp1717
g7
(lp1718
I0
aI1
aI0
aI1
aI0
aI0
aI0
aI0
aI0
aI1
aI1
aI0
aI0
aI0
aI0
asg9
(lp1719
sg11
I00
sg12
I2
sg13
I4
sg14
Nsg15
I1
sba(iCollectionSetFactory
Collection
p1720
(dp1721
g7
(lp1722
I0
aI1
aI0
aI1
aI0
aI1
aI0
aI0
aI0
aI0
aI1
aI0
aI0
aI0
aI0
asg9
(lp1723
sg11
I00
sg12
I2
sg13
I4
sg14
Nsg15
I1
sba(iCollectionSetFactory
Collection
p1724
(dp1725
g7
(lp1726
I0
aI1
aI0
aI1
aI1
aI0
aI0
aI0
aI0
aI0
aI0
aI1
aI0
aI0
aI0
asg9
(lp1727
sg11
I00
sg12
I2
sg13
I4
sg14
Nsg15
I1
sba(iCollectionSetFactory
Collection
p1728
(dp1729
g7
(lp1730
I0
aI1
aI0
aI1
aI1
aI0
aI0
aI0
aI0
aI1
aI0
aI0
aI0
aI0
aI0
asg9
(lp1731
sg11
I00
sg12
I2
sg13
I4
sg14
Nsg15
I1
sba(iCollectionSetFactory
Collection
p1732
(dp1733
g7
(lp1734
I1
aI0
aI0
aI0
aI0
aI0
aI0
aI1
aI1
aI1
aI0
aI0
aI0
aI0
aI0
asg9
(lp1735
sg11
I00
sg12
I2
sg13
I4
sg14
Nsg15
I1
sba(iCollectionSetFactory
Collection
p1736
(dp1737
g7
(lp1738
I1
aI0
aI0
aI0
aI0
aI0
aI1
aI0
aI1
aI0
aI1
aI0
aI0
aI0
aI0
asg9
(lp1739
sg11
I00
sg12
I2
sg13
I4
sg14
Nsg15
I1
sba(iCollectionSetFactory
Collection
p1740
(dp1741
g7
(lp1742
I1
aI0
aI0
aI0
aI0
aI0
aI1
aI1
aI1
aI0
aI0
aI0
aI0
aI0
aI0
asg9
(lp1743
sg11
I00
sg12
I2
sg13
I4
sg14
Nsg15
I1
sba(iCollectionSetFactory
Collection
p1744
(dp1745
g7
(lp1746
I1
aI0
aI0
aI0
aI0
aI1
aI0
aI0
aI0
aI0
aI1
aI1
aI0
aI0
aI0
asg9
(lp1747
sg11
I00
sg12
I2
sg13
I4
sg14
Nsg15
I1
sba(iCollectionSetFactory
Collection
p1748
(dp1749
g7
(lp1750
I1
aI0
aI0
aI0
aI0
aI1
aI0
aI0
aI1
aI0
aI0
aI1
aI0
aI0
aI0
asg9
(lp1751
sg11
I00
sg12
I2
sg13
I4
sg14
Nsg15
I2
sba(iCollectionSetFactory
Collection
p1752
(dp1753
g7
(lp1754
I1
aI0
aI0
aI0
aI0
aI1
aI0
aI1
aI0
aI1
aI0
aI0
aI0
aI0
aI0
asg9
(lp1755
sg11
I00
sg12
I2
sg13
I4
sg14
Nsg15
I1
sba(iCollectionSetFactory
Collection
p1756
(dp1757
g7
(lp1758
I1
aI0
aI0
aI0
aI1
aI0
aI0
aI0
aI0
aI1
aI0
aI1
aI0
aI0
aI0
asg9
(lp1759
sg11
I00
sg12
I2
sg13
I4
sg14
Nsg15
I1
sba(iCollectionSetFactory
Collection
p1760
(dp1761
g7
(lp1762
I1
aI0
aI0
aI0
aI1
aI0
aI0
aI0
aI1
aI0
aI1
aI0
aI0
aI0
aI0
asg9
(lp1763
sg11
I00
sg12
I2
sg13
I4
sg14
Nsg15
I1
sba(iCollectionSetFactory
Collection
p1764
(dp1765
g7
(lp1766
I1
aI0
aI0
aI0
aI1
aI0
aI0
aI1
aI1
aI0
aI0
aI0
aI0
aI0
aI0
asg9
(lp1767
sg11
I00
sg12
I2
sg13
I4
sg14
Nsg15
I1
sba(iCollectionSetFactory
Collection
p1768
(dp1769
g7
(lp1770
I1
aI0
aI0
aI1
aI0
aI1
aI0
aI0
aI1
aI0
aI0
aI0
aI0
aI0
aI0
asg9
(lp1771
sg11
I00
sg12
I2
sg13
I4
sg14
Nsg15
I2
sba(iCollectionSetFactory
Collection
p1772
(dp1773
g7
(lp1774
I1
aI0
aI0
aI1
aI1
aI0
aI0
aI1
aI0
aI0
aI0
aI0
aI0
aI0
aI0
asg9
(lp1775
sg11
I00
sg12
I2
sg13
I4
sg14
Nsg15
I1
sba(iCollectionSetFactory
Collection
p1776
(dp1777
g7
(lp1778
I1
aI1
aI0
aI0
aI0
aI0
aI0
aI1
aI1
aI0
aI0
aI0
aI0
aI0
aI0
asg9
(lp1779
sg11
I00
sg12
I2
sg13
I4
sg14
Nsg15
I1
sba(iCollectionSetFactory
Collection
p1780
(dp1781
g7
(lp1782
I1
aI1
aI0
aI0
aI0
aI1
aI0
aI0
aI0
aI1
aI0
aI0
aI0
aI0
aI0
asg9
(lp1783
sg11
I00
sg12
I2
sg13
I4
sg14
Nsg15
I1
sba(iCollectionSetFactory
Collection
p1784
(dp1785
g7
(lp1786
I1
aI1
aI0
aI0
aI1
aI0
aI0
aI1
aI0
aI0
aI0
aI0
aI0
aI0
aI0
asg9
(lp1787
sg11
I00
sg12
I2
sg13
I4
sg14
Nsg15
I2
sba(iCollectionSetFactory
Collection
p1788
(dp1789
g7
(lp1790
I1
aI1
aI0
aI1
aI0
aI0
aI0
aI0
aI0
aI0
aI1
aI0
aI0
aI0
aI0
asg9
(lp1791
sg11
I00
sg12
I2
sg13
I4
sg14
Nsg15
I1
sba(iCollectionSetFactory
Collection
p1792
(dp1793
g7
(lp1794
I1
aI1
aI0
aI1
aI0
aI0
aI1
aI0
aI0
aI0
aI0
aI0
aI0
aI0
aI0
asg9
(lp1795
sg11
I00
sg12
I2
sg13
I4
sg14
Nsg15
I1
sba(iCollectionSetFactory
Collection
p1796
(dp1797
g7
(lp1798
I1
aI1
aI0
aI1
aI1
aI0
aI0
aI0
aI0
aI0
aI0
aI0
aI0
aI0
aI0
asg9
(lp1799
sg11
I00
sg12
I2
sg13
I4
sg14
Nsg15
I2
sba(iCollectionSetFactory
Collection
p1800
(dp1801
g7
(lp1802
I0
aI0
aI0
aI0
aI0
aI0
aI0
aI0
aI1
aI1
aI1
aI1
aI0
aI0
aI0
asg9
(lp1803
sg11
I00
sg12
I2
sg13
I3
sg14
Nsg15
I1
sba(iCollectionSetFactory
Collection
p1804
(dp1805
g7
(lp1806
I0
aI0
aI0
aI0
aI0
aI0
aI1
aI0
aI1
aI1
aI0
aI1
aI0
aI0
aI0
asg9
(lp1807
sg11
I00
sg12
I2
sg13
I3
sg14
Nsg15
I1
sba(iCollectionSetFactory
Collection
p1808
(dp1809
g7
(lp1810
I0
aI0
aI0
aI0
aI0
aI0
aI1
aI0
aI1
aI1
aI1
aI0
aI0
aI0
aI0
asg9
(lp1811
sg11
I00
sg12
I2
sg13
I3
sg14
Nsg15
I1
sba(iCollectionSetFactory
Collection
p1812
(dp1813
g7
(lp1814
I0
aI0
aI0
aI0
aI0
aI1
aI0
aI0
aI0
aI1
aI1
aI1
aI0
aI0
aI0
asg9
(lp1815
sg11
I00
sg12
I2
sg13
I3
sg14
Nsg15
I1
sba(iCollectionSetFactory
Collection
p1816
(dp1817
g7
(lp1818
I0
aI0
aI0
aI1
aI0
aI0
aI0
aI0
aI0
aI1
aI1
aI1
aI0
aI0
aI0
asg9
(lp1819
sg11
I00
sg12
I2
sg13
I3
sg14
Nsg15
I1
sba(iCollectionSetFactory
Collection
p1820
(dp1821
g7
(lp1822
I0
aI0
aI0
aI1
aI0
aI0
aI1
aI0
aI0
aI1
aI1
aI0
aI0
aI0
aI0
asg9
(lp1823
sg11
I00
sg12
I2
sg13
I3
sg14
Nsg15
I1
sba(iCollectionSetFactory
Collection
p1824
(dp1825
g7
(lp1826
I0
aI0
aI0
aI1
aI0
aI0
aI1
aI0
aI1
aI1
aI0
aI0
aI0
aI0
aI0
asg9
(lp1827
sg11
I00
sg12
I2
sg13
I3
sg14
Nsg15
I1
sba(iCollectionSetFactory
Collection
p1828
(dp1829
g7
(lp1830
I0
aI0
aI0
aI1
aI0
aI0
aI1
aI1
aI0
aI1
aI0
aI0
aI0
aI0
aI0
asg9
(lp1831
sg11
I00
sg12
I2
sg13
I3
sg14
Nsg15
I1
sba(iCollectionSetFactory
Collection
p1832
(dp1833
g7
(lp1834
I0
aI1
aI0
aI0
aI0
aI0
aI0
aI0
aI1
aI0
aI1
aI1
aI0
aI0
aI0
asg9
(lp1835
sg11
I00
sg12
I2
sg13
I3
sg14
Nsg15
I1
sba(iCollectionSetFactory
Collection
p1836
(dp1837
g7
(lp1838
I0
aI1
aI0
aI0
aI0
aI0
aI0
aI0
aI1
aI1
aI0
aI1
aI0
aI0
aI0
asg9
(lp1839
sg11
I00
sg12
I2
sg13
I3
sg14
Nsg15
I1
sba(iCollectionSetFactory
Collection
p1840
(dp1841
g7
(lp1842
I0
aI1
aI0
aI0
aI0
aI0
aI0
aI1
aI0
aI1
aI0
aI1
aI0
aI0
aI0
asg9
(lp1843
sg11
I00
sg12
I2
sg13
I3
sg14
Nsg15
I1
sba(iCollectionSetFactory
Collection
p1844
(dp1845
g7
(lp1846
I0
aI1
aI0
aI0
aI1
aI0
aI0
aI0
aI1
aI0
aI1
aI0
aI0
aI0
aI0
asg9
(lp1847
sg11
I00
sg12
I2
sg13
I3
sg14
Nsg15
I1
sba(iCollectionSetFactory
Collection
p1848
(dp1849
g7
(lp1850
I0
aI1
aI0
aI0
aI1
aI0
aI0
aI1
aI1
aI0
aI0
aI0
aI0
aI0
aI0
asg9
(lp1851
sg11
I00
sg12
I2
sg13
I3
sg14
Nsg15
I1
sba(iCollectionSetFactory
Collection
p1852
(dp1853
g7
(lp1854
I0
aI1
aI0
aI1
aI0
aI0
aI0
aI1
aI0
aI0
aI0
aI1
aI0
aI0
aI0
asg9
(lp1855
sg11
I00
sg12
I2
sg13
I3
sg14
Nsg15
I1
sba(iCollectionSetFactory
Collection
p1856
(dp1857
g7
(lp1858
I0
aI1
aI0
aI1
aI0
aI0
aI1
aI0
aI1
aI0
aI0
aI0
aI0
aI0
aI0
asg9
(lp1859
sg11
I00
sg12
I2
sg13
I3
sg14
Nsg15
I1
sba(iCollectionSetFactory
Collection
p1860
(dp1861
g7
(lp1862
I0
aI1
aI0
aI1
aI1
aI0
aI0
aI0
aI1
aI0
aI0
aI0
aI0
aI0
aI0
asg9
(lp1863
sg11
I00
sg12
I2
sg13
I3
sg14
Nsg15
I1
sba(iCollectionSetFactory
Collection
p1864
(dp1865
g7
(lp1866
I1
aI0
aI0
aI0
aI0
aI0
aI1
aI0
aI1
aI1
aI0
aI0
aI0
aI0
aI0
asg9
(lp1867
sg11
I00
sg12
I2
sg13
I3
sg14
Nsg15
I1
sba(iCollectionSetFactory
Collection
p1868
(dp1869
g7
(lp1870
I1
aI0
aI0
aI1
aI0
aI0
aI0
aI0
aI0
aI1
aI1
aI0
aI0
aI0
aI0
asg9
(lp1871
sg11
I00
sg12
I2
sg13
I3
sg14
Nsg15
I1
sba(iCollectionSetFactory
Collection
p1872
(dp1873
g7
(lp1874
I1
aI0
aI0
aI1
aI0
aI1
aI0
aI0
aI0
aI1
aI0
aI0
aI0
aI0
aI0
asg9
(lp1875
sg11
I00
sg12
I2
sg13
I3
sg14
Nsg15
I1
sba(iCollectionSetFactory
Collection
p1876
(dp1877
g7
(lp1878
I1
aI1
aI0
aI0
aI0
aI0
aI0
aI0
aI0
aI0
aI1
aI1
aI0
aI0
aI0
asg9
(lp1879
sg11
I00
sg12
I2
sg13
I3
sg14
Nsg15
I1
sba(iCollectionSetFactory
Collection
p1880
(dp1881
g7
(lp1882
I1
aI1
aI0
aI0
aI0
aI0
aI0
aI0
aI0
aI1
aI0
aI1
aI0
aI0
aI0
asg9
(lp1883
sg11
I00
sg12
I2
sg13
I3
sg14
Nsg15
I1
sba(iCollectionSetFactory
Collection
p1884
(dp1885
g7
(lp1886
I1
aI1
aI0
aI0
aI0
aI0
aI1
aI0
aI1
aI0
aI0
aI0
aI0
aI0
aI0
asg9
(lp1887
sg11
I00
sg12
I2
sg13
I3
sg14
Nsg15
I1
sba(iCollectionSetFactory
Collection
p1888
(dp1889
g7
(lp1890
I1
aI1
aI0
aI0
aI0
aI1
aI0
aI0
aI0
aI0
aI0
aI1
aI0
aI0
aI0
asg9
(lp1891
sg11
I00
sg12
I2
sg13
I3
sg14
Nsg15
I1
sba(iCollectionSetFactory
Collection
p1892
(dp1893
g7
(lp1894
I1
aI1
aI0
aI0
aI1
aI0
aI0
aI0
aI0
aI0
aI1
aI0
aI0
aI0
aI0
asg9
(lp1895
sg11
I00
sg12
I2
sg13
I3
sg14
Nsg15
I1
sba(iCollectionSetFactory
Collection
p1896
(dp1897
g7
(lp1898
I1
aI1
aI0
aI0
aI1
aI0
aI0
aI0
aI1
aI0
aI0
aI0
aI0
aI0
aI0
asg9
(lp1899
sg11
I00
sg12
I2
sg13
I3
sg14
Nsg15
I1
sba(iCollectionSetFactory
Collection
p1900
(dp1901
g7
(lp1902
I1
aI1
aI0
aI1
aI0
aI0
aI0
aI1
aI0
aI0
aI0
aI0
aI0
aI0
aI0
asg9
(lp1903
sg11
I00
sg12
I2
sg13
I3
sg14
Nsg15
I1
sba(iCollectionSetFactory
Collection
p1904
(dp1905
g7
(lp1906
I0
aI0
aI0
aI1
aI0
aI1
aI0
aI0
aI0
aI0
aI1
aI1
aI0
aI0
aI0
asg9
(lp1907
sg11
I00
sg12
I2
sg13
I2
sg14
Nsg15
I1
sba(iCollectionSetFactory
Collection
p1908
(dp1909
g7
(lp1910
I0
aI1
aI0
aI0
aI1
aI0
aI0
aI0
aI1
aI1
aI0
aI0
aI0
aI0
aI0
asg9
(lp1911
sg11
I00
sg12
I2
sg13
I2
sg14
Nsg15
I1
sba(iCollectionSetFactory
Collection
p1912
(dp1913
g7
(lp1914
I1
aI0
aI0
aI1
aI0
aI0
aI0
aI0
aI1
aI0
aI0
aI1
aI0
aI0
aI0
asg9
(lp1915
sg11
I00
sg12
I2
sg13
I2
sg14
Nsg15
I1
sba(iCollectionSetFactory
Collection
p1916
(dp1917
g7
(lp1918
I1
aI1
aI0
aI0
aI1
aI0
aI0
aI0
aI0
aI1
aI0
aI0
aI0
aI0
aI0
asg9
(lp1919
sg11
I00
sg12
I2
sg13
I2
sg14
Nsg15
I1
sba(iCollectionSetFactory
Collection
p1920
(dp1921
g7
(lp1922
I1
aI1
aI0
aI1
aI0
aI0
aI0
aI0
aI0
aI1
aI0
aI0
aI0
aI0
aI0
asg9
(lp1923
sg11
I00
sg12
I2
sg13
I2
sg14
Nsg15
I1
sba(iCollectionSetFactory
Collection
p1924
(dp1925
g7
(lp1926
I0
aI0
aI0
aI1
aI0
aI0
aI0
aI0
aI1
aI0
aI0
aI1
aI0
aI1
aI0
asg9
(lp1927
sg11
I01
sg12
I2
sg13
I1
sg14
Nsg15
I1
sba(iCollectionSetFactory
Collection
p1928
(dp1929
g7
(lp1930
I0
aI0
aI0
aI1
aI0
aI0
aI0
aI0
aI1
aI0
aI1
aI0
aI1
aI0
aI0
asg9
(lp1931
sg11
I01
sg12
I2
sg13
I1
sg14
Nsg15
I1
sba(iCollectionSetFactory
Collection
p1932
(dp1933
g7
(lp1934
I1
aI1
aI0
aI1
aI0
aI0
aI0
aI0
aI0
aI0
aI0
aI1
aI0
aI0
aI0
asg9
(lp1935
sg11
I01
sg12
I2
sg13
I1
sg14
Nsg15
I1
sbaa(lp1936
(iCollectionSetFactory
Collection
p1937
(dp1938
g7
(lp1939
I0
aI0
aI0
aI0
aI1
aI1
aI1
aI1
aI0
aI0
aI1
aI0
aI0
aI0
aI0
asg9
(lp1940
sg11
I00
sg12
I2
sg13
I22
sg14
Nsg15
I14
sba(iCollectionSetFactory
Collection
p1941
(dp1942
g7
(lp1943
I0
aI0
aI0
aI0
aI1
aI1
aI1
aI1
aI1
aI0
aI0
aI0
aI0
aI0
aI0
asg9
(lp1944
sg11
I00
sg12
I2
sg13
I14
sg14
Nsg15
I6
sba(iCollectionSetFactory
Collection
p1945
(dp1946
g7
(lp1947
I0
aI0
aI0
aI0
aI1
aI1
aI1
aI1
aI0
aI0
aI0
aI1
aI0
aI0
aI0
asg9
(lp1948
sg11
I00
sg12
I2
sg13
I12
sg14
Nsg15
I5
sba(iCollectionSetFactory
Collection
p1949
(dp1950
g7
(lp1951
I0
aI0
aI0
aI0
aI1
aI1
aI1
aI0
aI1
aI0
aI0
aI1
aI0
aI0
aI0
asg9
(lp1952
sg11
I00
sg12
I2
sg13
I11
sg14
Nsg15
I4
sba(iCollectionSetFactory
Collection
p1953
(dp1954
g7
(lp1955
I0
aI0
aI0
aI0
aI1
aI1
aI1
aI0
aI1
aI0
aI1
aI0
aI0
aI0
aI0
asg9
(lp1956
sg11
I00
sg12
I2
sg13
I11
sg14
Nsg15
I3
sba(iCollectionSetFactory
Collection
p1957
(dp1958
g7
(lp1959
I0
aI1
aI0
aI0
aI1
aI1
aI1
aI0
aI0
aI0
aI0
aI1
aI0
aI0
aI0
asg9
(lp1960
sg11
I00
sg12
I2
sg13
I11
sg14
Nsg15
I6
sba(iCollectionSetFactory
Collection
p1961
(dp1962
g7
(lp1963
I0
aI0
aI0
aI0
aI1
aI0
aI1
aI1
aI1
aI0
aI1
aI0
aI0
aI0
aI0
asg9
(lp1964
sg11
I00
sg12
I2
sg13
I10
sg14
Nsg15
I2
sba(iCollectionSetFactory
Collection
p1965
(dp1966
g7
(lp1967
I0
aI0
aI0
aI0
aI1
aI1
aI1
aI0
aI0
aI0
aI1
aI1
aI0
aI0
aI0
asg9
(lp1968
sg11
I00
sg12
I2
sg13
I10
sg14
Nsg15
I3
sba(iCollectionSetFactory
Collection
p1969
(dp1970
g7
(lp1971
I0
aI1
aI0
aI0
aI1
aI1
aI1
aI1
aI0
aI0
aI0
aI0
aI0
aI0
aI0
asg9
(lp1972
sg11
I00
sg12
I2
sg13
I10
sg14
Nsg15
I5
sba(iCollectionSetFactory
Collection
p1973
(dp1974
g7
(lp1975
I0
aI0
aI0
aI0
aI1
aI1
aI0
aI1
aI1
aI0
aI1
aI0
aI0
aI0
aI0
asg9
(lp1976
sg11
I00
sg12
I2
sg13
I9
sg14
Nsg15
I1
sba(iCollectionSetFactory
Collection
p1977
(dp1978
g7
(lp1979
I0
aI0
aI0
aI0
aI1
aI1
aI1
aI0
aI0
aI1
aI0
aI1
aI0
aI0
aI0
asg9
(lp1980
sg11
I00
sg12
I2
sg13
I9
sg14
Nsg15
I4
sba(iCollectionSetFactory
Collection
p1981
(dp1982
g7
(lp1983
I0
aI0
aI0
aI1
aI1
aI1
aI1
aI1
aI0
aI0
aI0
aI0
aI0
aI0
aI0
asg9
(lp1984
sg11
I00
sg12
I2
sg13
I9
sg14
Nsg15
I6
sba(iCollectionSetFactory
Collection
p1985
(dp1986
g7
(lp1987
I0
aI1
aI0
aI0
aI1
aI1
aI1
aI0
aI0
aI0
aI1
aI0
aI0
aI0
aI0
asg9
(lp1988
sg11
I00
sg12
I2
sg13
I9
sg14
Nsg15
I4
sba(iCollectionSetFactory
Collection
p1989
(dp1990
g7
(lp1991
I0
aI0
aI0
aI0
aI0
aI1
aI1
aI1
aI0
aI0
aI1
aI1
aI0
aI0
aI0
asg9
(lp1992
sg11
I00
sg12
I2
sg13
I8
sg14
Nsg15
I1
sba(iCollectionSetFactory
Collection
p1993
(dp1994
g7
(lp1995
I0
aI0
aI0
aI1
aI1
aI0
aI0
aI1
aI1
aI0
aI1
aI0
aI0
aI0
aI0
asg9
(lp1996
sg11
I00
sg12
I2
sg13
I8
sg14
Nsg15
I5
sba(iCollectionSetFactory
Collection
p1997
(dp1998
g7
(lp1999
I0
aI1
aI0
aI1
aI1
aI1
aI1
aI0
aI0
aI0
aI0
aI0
aI0
aI0
aI0
asg9
(lp2000
sg11
I00
sg12
I2
sg13
I8
sg14
Nsg15
I5
sba(iCollectionSetFactory
Collection
p2001
(dp2002
g7
(lp2003
I0
aI0
aI0
aI0
aI0
aI1
aI0
aI1
aI1
aI1
aI1
aI0
aI0
aI0
aI0
asg9
(lp2004
sg11
I00
sg12
I2
sg13
I7
sg14
Nsg15
I3
sba(iCollectionSetFactory
Collection
p2005
(dp2006
g7
(lp2007
I0
aI0
aI0
aI1
aI0
aI1
aI0
aI1
aI1
aI1
aI0
aI0
aI0
aI0
aI0
asg9
(lp2008
sg11
I00
sg12
I2
sg13
I7
sg14
Nsg15
I3
sba(iCollectionSetFactory
Collection
p2009
(dp2010
g7
(lp2011
I0
aI1
aI0
aI0
aI1
aI1
aI1
aI0
aI1
aI0
aI0
aI0
aI0
aI0
aI0
asg9
(lp2012
sg11
I00
sg12
I2
sg13
I7
sg14
Nsg15
I4
sba(iCollectionSetFactory
Collection
p2013
(dp2014
g7
(lp2015
I0
aI0
aI0
aI0
aI1
aI0
aI0
aI1
aI1
aI0
aI1
aI1
aI0
aI0
aI0
asg9
(lp2016
sg11
I00
sg12
I2
sg13
I6
sg14
Nsg15
I2
sba(iCollectionSetFactory
Collection
p2017
(dp2018
g7
(lp2019
I0
aI0
aI0
aI1
aI0
aI0
aI0
aI1
aI1
aI1
aI1
aI0
aI0
aI0
aI0
asg9
(lp2020
sg11
I00
sg12
I2
sg13
I6
sg14
Nsg15
I2
sba(iCollectionSetFactory
Collection
p2021
(dp2022
g7
(lp2023
I0
aI0
aI0
aI1
aI0
aI1
aI0
aI1
aI1
aI0
aI1
aI0
aI0
aI0
aI0
asg9
(lp2024
sg11
I00
sg12
I2
sg13
I6
sg14
Nsg15
I2
sba(iCollectionSetFactory
Collection
p2025
(dp2026
g7
(lp2027
I0
aI0
aI0
aI1
aI1
aI1
aI1
aI0
aI0
aI0
aI1
aI0
aI0
aI0
aI0
asg9
(lp2028
sg11
I00
sg12
I2
sg13
I6
sg14
Nsg15
I3
sba(iCollectionSetFactory
Collection
p2029
(dp2030
g7
(lp2031
I0
aI1
aI0
aI0
aI0
aI1
aI1
aI0
aI0
aI1
aI0
aI1
aI0
aI0
aI0
asg9
(lp2032
sg11
I00
sg12
I2
sg13
I6
sg14
Nsg15
I1
sba(iCollectionSetFactory
Collection
p2033
(dp2034
g7
(lp2035
I0
aI1
aI0
aI0
aI1
aI1
aI1
aI0
aI0
aI1
aI0
aI0
aI0
aI0
aI0
asg9
(lp2036
sg11
I00
sg12
I2
sg13
I6
sg14
Nsg15
I1
sba(iCollectionSetFactory
Collection
p2037
(dp2038
g7
(lp2039
I1
aI0
aI0
aI0
aI1
aI1
aI1
aI0
aI0
aI0
aI1
aI0
aI0
aI0
aI0
asg9
(lp2040
sg11
I00
sg12
I2
sg13
I6
sg14
Nsg15
I3
sba(iCollectionSetFactory
Collection
p2041
(dp2042
g7
(lp2043
I1
aI0
aI0
aI1
aI0
aI0
aI0
aI1
aI1
aI0
aI1
aI0
aI0
aI0
aI0
asg9
(lp2044
sg11
I00
sg12
I2
sg13
I6
sg14
Nsg15
I4
sba(iCollectionSetFactory
Collection
p2045
(dp2046
g7
(lp2047
I0
aI0
aI0
aI0
aI1
aI1
aI1
aI0
aI1
aI1
aI0
aI0
aI0
aI0
aI0
asg9
(lp2048
sg11
I00
sg12
I2
sg13
I5
sg14
Nsg15
I3
sba(iCollectionSetFactory
Collection
p2049
(dp2050
g7
(lp2051
I0
aI0
aI0
aI1
aI0
aI0
aI0
aI1
aI1
aI0
aI1
aI1
aI0
aI0
aI0
asg9
(lp2052
sg11
I00
sg12
I2
sg13
I5
sg14
Nsg15
I2
sba(iCollectionSetFactory
Collection
p2053
(dp2054
g7
(lp2055
I0
aI0
aI0
aI1
aI0
aI0
aI1
aI1
aI1
aI0
aI1
aI0
aI0
aI0
aI0
asg9
(lp2056
sg11
I00
sg12
I2
sg13
I5
sg14
Nsg15
I2
sba(iCollectionSetFactory
Collection
p2057
(dp2058
g7
(lp2059
I0
aI0
aI0
aI1
aI0
aI1
aI0
aI0
aI1
aI1
aI1
aI0
aI0
aI0
aI0
asg9
(lp2060
sg11
I00
sg12
I2
sg13
I5
sg14
Nsg15
I1
sba(iCollectionSetFactory
Collection
p2061
(dp2062
g7
(lp2063
I0
aI0
aI0
aI1
aI1
aI0
aI1
aI1
aI0
aI0
aI1
aI0
aI0
aI0
aI0
asg9
(lp2064
sg11
I00
sg12
I2
sg13
I5
sg14
Nsg15
I2
sba(iCollectionSetFactory
Collection
p2065
(dp2066
g7
(lp2067
I0
aI0
aI0
aI1
aI1
aI1
aI1
aI0
aI0
aI0
aI0
aI1
aI0
aI0
aI0
asg9
(lp2068
sg11
I00
sg12
I2
sg13
I5
sg14
Nsg15
I2
sba(iCollectionSetFactory
Collection
p2069
(dp2070
g7
(lp2071
I0
aI0
aI0
aI1
aI1
aI1
aI1
aI0
aI0
aI1
aI0
aI0
aI0
aI0
aI0
asg9
(lp2072
sg11
I00
sg12
I2
sg13
I5
sg14
Nsg15
I2
sba(iCollectionSetFactory
Collection
p2073
(dp2074
g7
(lp2075
I1
aI0
aI0
aI0
aI1
aI0
aI1
aI1
aI0
aI0
aI1
aI0
aI0
aI0
aI0
asg9
(lp2076
sg11
I00
sg12
I2
sg13
I5
sg14
Nsg15
I2
sba(iCollectionSetFactory
Collection
p2077
(dp2078
g7
(lp2079
I1
aI0
aI0
aI0
aI1
aI1
aI1
aI0
aI0
aI0
aI0
aI1
aI0
aI0
aI0
asg9
(lp2080
sg11
I00
sg12
I2
sg13
I5
sg14
Nsg15
I2
sba(iCollectionSetFactory
Collection
p2081
(dp2082
g7
(lp2083
I1
aI0
aI0
aI0
aI1
aI1
aI1
aI0
aI0
aI1
aI0
aI0
aI0
aI0
aI0
asg9
(lp2084
sg11
I00
sg12
I2
sg13
I5
sg14
Nsg15
I2
sba(iCollectionSetFactory
Collection
p2085
(dp2086
g7
(lp2087
I1
aI1
aI0
aI0
aI1
aI1
aI1
aI0
aI0
aI0
aI0
aI0
aI0
aI0
aI0
asg9
(lp2088
sg11
I00
sg12
I2
sg13
I5
sg14
Nsg15
I3
sba(iCollectionSetFactory
Collection
p2089
(dp2090
g7
(lp2091
I0
aI0
aI0
aI0
aI0
aI0
aI1
aI1
aI0
aI1
aI1
aI1
aI0
aI0
aI0
asg9
(lp2092
sg11
I00
sg12
I2
sg13
I4
sg14
Nsg15
I2
sba(iCollectionSetFactory
Collection
p2093
(dp2094
g7
(lp2095
I0
aI0
aI0
aI0
aI1
aI1
aI1
aI1
aI0
aI1
aI0
aI0
aI0
aI0
aI0
asg9
(lp2096
sg11
I00
sg12
I2
sg13
I4
sg14
Nsg15
I2
sba(iCollectionSetFactory
Collection
p2097
(dp2098
g7
(lp2099
I0
aI0
aI0
aI1
aI0
aI0
aI0
aI1
aI1
aI1
aI0
aI1
aI0
aI0
aI0
asg9
(lp2100
sg11
I00
sg12
I2
sg13
I4
sg14
Nsg15
I2
sba(iCollectionSetFactory
Collection
p2101
(dp2102
g7
(lp2103
I0
aI0
aI0
aI1
aI0
aI1
aI0
aI1
aI1
aI0
aI0
aI1
aI0
aI0
aI0
asg9
(lp2104
sg11
I00
sg12
I2
sg13
I4
sg14
Nsg15
I2
sba(iCollectionSetFactory
Collection
p2105
(dp2106
g7
(lp2107
I0
aI0
aI0
aI1
aI1
aI0
aI0
aI1
aI0
aI0
aI1
aI1
aI0
aI0
aI0
asg9
(lp2108
sg11
I00
sg12
I2
sg13
I4
sg14
Nsg15
I1
sba(iCollectionSetFactory
Collection
p2109
(dp2110
g7
(lp2111
I0
aI0
aI0
aI1
aI1
aI0
aI1
aI1
aI1
aI0
aI0
aI0
aI0
aI0
aI0
asg9
(lp2112
sg11
I00
sg12
I2
sg13
I4
sg14
Nsg15
I1
sba(iCollectionSetFactory
Collection
p2113
(dp2114
g7
(lp2115
I0
aI1
aI0
aI0
aI0
aI1
aI0
aI1
aI1
aI0
aI1
aI0
aI0
aI0
aI0
asg9
(lp2116
sg11
I00
sg12
I2
sg13
I4
sg14
Nsg15
I1
sba(iCollectionSetFactory
Collection
p2117
(dp2118
g7
(lp2119
I0
aI1
aI0
aI0
aI0
aI1
aI0
aI1
aI1
aI1
aI0
aI0
aI0
aI0
aI0
asg9
(lp2120
sg11
I00
sg12
I2
sg13
I4
sg14
Nsg15
I1
sba(iCollectionSetFactory
Collection
p2121
(dp2122
g7
(lp2123
I0
aI1
aI0
aI0
aI0
aI1
aI1
aI1
aI0
aI0
aI0
aI1
aI0
aI0
aI0
asg9
(lp2124
sg11
I00
sg12
I2
sg13
I4
sg14
Nsg15
I1
sba(iCollectionSetFactory
Collection
p2125
(dp2126
g7
(lp2127
I0
aI1
aI0
aI1
aI0
aI0
aI0
aI1
aI1
aI0
aI1
aI0
aI0
aI0
aI0
asg9
(lp2128
sg11
I00
sg12
I2
sg13
I4
sg14
Nsg15
I2
sba(iCollectionSetFactory
Collection
p2129
(dp2130
g7
(lp2131
I0
aI1
aI0
aI1
aI0
aI0
aI0
aI1
aI1
aI1
aI0
aI0
aI0
aI0
aI0
asg9
(lp2132
sg11
I00
sg12
I2
sg13
I4
sg14
Nsg15
I1
sba(iCollectionSetFactory
Collection
p2133
(dp2134
g7
(lp2135
I0
aI1
aI0
aI1
aI0
aI1
aI0
aI1
aI0
aI1
aI0
aI0
aI0
aI0
aI0
asg9
(lp2136
sg11
I00
sg12
I2
sg13
I4
sg14
Nsg15
I1
sba(iCollectionSetFactory
Collection
p2137
(dp2138
g7
(lp2139
I0
aI1
aI0
aI1
aI0
aI1
aI0
aI1
aI1
aI0
aI0
aI0
aI0
aI0
aI0
asg9
(lp2140
sg11
I00
sg12
I2
sg13
I4
sg14
Nsg15
I1
sba(iCollectionSetFactory
Collection
p2141
(dp2142
g7
(lp2143
I0
aI1
aI0
aI1
aI0
aI1
aI1
aI0
aI0
aI0
aI0
aI1
aI0
aI0
aI0
asg9
(lp2144
sg11
I00
sg12
I2
sg13
I4
sg14
Nsg15
I1
sba(iCollectionSetFactory
Collection
p2145
(dp2146
g7
(lp2147
I0
aI1
aI0
aI1
aI0
aI1
aI1
aI1
aI0
aI0
aI0
aI0
aI0
aI0
aI0
asg9
(lp2148
sg11
I00
sg12
I2
sg13
I4
sg14
Nsg15
I1
sba(iCollectionSetFactory
Collection
p2149
(dp2150
g7
(lp2151
I1
aI0
aI0
aI0
aI0
aI1
aI0
aI1
aI1
aI0
aI1
aI0
aI0
aI0
aI0
asg9
(lp2152
sg11
I00
sg12
I2
sg13
I4
sg14
Nsg15
I2
sba(iCollectionSetFactory
Collection
p2153
(dp2154
g7
(lp2155
I1
aI0
aI0
aI0
aI0
aI1
aI1
aI0
aI0
aI1
aI0
aI1
aI0
aI0
aI0
asg9
(lp2156
sg11
I00
sg12
I2
sg13
I4
sg14
Nsg15
I1
sba(iCollectionSetFactory
Collection
p2157
(dp2158
g7
(lp2159
I1
aI0
aI0
aI0
aI0
aI1
aI1
aI1
aI0
aI0
aI1
aI0
aI0
aI0
aI0
asg9
(lp2160
sg11
I00
sg12
I2
sg13
I4
sg14
Nsg15
I1
sba(iCollectionSetFactory
Collection
p2161
(dp2162
g7
(lp2163
I1
aI0
aI0
aI0
aI1
aI1
aI1
aI0
aI1
aI0
aI0
aI0
aI0
aI0
aI0
asg9
(lp2164
sg11
I00
sg12
I2
sg13
I4
sg14
Nsg15
I2
sba(iCollectionSetFactory
Collection
p2165
(dp2166
g7
(lp2167
I1
aI0
aI0
aI0
aI1
aI1
aI1
aI1
aI0
aI0
aI0
aI0
aI0
aI0
aI0
asg9
(lp2168
sg11
I00
sg12
I2
sg13
I4
sg14
Nsg15
I1
sba(iCollectionSetFactory
Collection
p2169
(dp2170
g7
(lp2171
I0
aI0
aI0
aI0
aI0
aI1
aI0
aI1
aI1
aI1
aI0
aI1
aI0
aI0
aI0
asg9
(lp2172
sg11
I00
sg12
I2
sg13
I3
sg14
Nsg15
I1
sba(iCollectionSetFactory
Collection
p2173
(dp2174
g7
(lp2175
I0
aI0
aI0
aI0
aI0
aI1
aI1
aI1
aI0
aI1
aI0
aI1
aI0
aI0
aI0
asg9
(lp2176
sg11
I00
sg12
I2
sg13
I3
sg14
Nsg15
I1
sba(iCollectionSetFactory
Collection
p2177
(dp2178
g7
(lp2179
I0
aI0
aI0
aI0
aI1
aI1
aI1
aI0
aI0
aI1
aI1
aI0
aI0
aI0
aI0
asg9
(lp2180
sg11
I00
sg12
I2
sg13
I3
sg14
Nsg15
I2
sba(iCollectionSetFactory
Collection
p2181
(dp2182
g7
(lp2183
I0
aI0
aI0
aI1
aI0
aI0
aI1
aI1
aI0
aI0
aI1
aI1
aI0
aI0
aI0
asg9
(lp2184
sg11
I00
sg12
I2
sg13
I3
sg14
Nsg15
I2
sba(iCollectionSetFactory
Collection
p2185
(dp2186
g7
(lp2187
I0
aI0
aI0
aI1
aI0
aI1
aI0
aI0
aI1
aI1
aI0
aI1
aI0
aI0
aI0
asg9
(lp2188
sg11
I00
sg12
I2
sg13
I3
sg14
Nsg15
I1
sba(iCollectionSetFactory
Collection
p2189
(dp2190
g7
(lp2191
I0
aI0
aI0
aI1
aI1
aI1
aI0
aI0
aI1
aI0
aI0
aI1
aI0
aI0
aI0
asg9
(lp2192
sg11
I00
sg12
I2
sg13
I3
sg14
Nsg15
I1
sba(iCollectionSetFactory
Collection
p2193
(dp2194
g7
(lp2195
I0
aI0
aI0
aI1
aI1
aI1
aI1
aI0
aI1
aI0
aI0
aI0
aI0
aI0
aI0
asg9
(lp2196
sg11
I00
sg12
I2
sg13
I3
sg14
Nsg15
I1
sba(iCollectionSetFactory
Collection
p2197
(dp2198
g7
(lp2199
I0
aI1
aI0
aI0
aI1
aI0
aI0
aI1
aI0
aI0
aI1
aI1
aI0
aI0
aI0
asg9
(lp2200
sg11
I00
sg12
I2
sg13
I3
sg14
Nsg15
I1
sba(iCollectionSetFactory
Collection
p2201
(dp2202
g7
(lp2203
I0
aI1
aI0
aI1
aI0
aI0
aI0
aI0
aI1
aI1
aI1
aI0
aI0
aI0
aI0
asg9
(lp2204
sg11
I00
sg12
I2
sg13
I3
sg14
Nsg15
I1
sba(iCollectionSetFactory
Collection
p2205
(dp2206
g7
(lp2207
I0
aI1
aI0
aI1
aI0
aI1
aI0
aI0
aI0
aI1
aI0
aI1
aI0
aI0
aI0
asg9
(lp2208
sg11
I00
sg12
I2
sg13
I3
sg14
Nsg15
I1
sba(iCollectionSetFactory
Collection
p2209
(dp2210
g7
(lp2211
I0
aI1
aI0
aI1
aI0
aI1
aI0
aI0
aI0
aI1
aI1
aI0
aI0
aI0
aI0
asg9
(lp2212
sg11
I00
sg12
I2
sg13
I3
sg14
Nsg15
I1
sba(iCollectionSetFactory
Collection
p2213
(dp2214
g7
(lp2215
I0
aI1
aI0
aI1
aI0
aI1
aI0
aI1
aI0
aI0
aI1
aI0
aI0
aI0
aI0
asg9
(lp2216
sg11
I00
sg12
I2
sg13
I3
sg14
Nsg15
I1
sba(iCollectionSetFactory
Collection
p2217
(dp2218
g7
(lp2219
I1
aI0
aI0
aI0
aI0
aI0
aI0
aI1
aI1
aI1
aI1
aI0
aI0
aI0
aI0
asg9
(lp2220
sg11
I00
sg12
I2
sg13
I3
sg14
Nsg15
I1
sba(iCollectionSetFactory
Collection
p2221
(dp2222
g7
(lp2223
I1
aI0
aI0
aI0
aI0
aI0
aI1
aI0
aI0
aI1
aI1
aI1
aI0
aI0
aI0
asg9
(lp2224
sg11
I00
sg12
I2
sg13
I3
sg14
Nsg15
I1
sba(iCollectionSetFactory
Collection
p2225
(dp2226
g7
(lp2227
I1
aI0
aI0
aI0
aI0
aI0
aI1
aI1
aI0
aI0
aI1
aI1
aI0
aI0
aI0
asg9
(lp2228
sg11
I00
sg12
I2
sg13
I3
sg14
Nsg15
I1
sba(iCollectionSetFactory
Collection
p2229
(dp2230
g7
(lp2231
I1
aI0
aI0
aI0
aI0
aI0
aI1
aI1
aI0
aI1
aI1
aI0
aI0
aI0
aI0
asg9
(lp2232
sg11
I00
sg12
I2
sg13
I3
sg14
Nsg15
I1
sba(iCollectionSetFactory
Collection
p2233
(dp2234
g7
(lp2235
I1
aI0
aI0
aI0
aI0
aI0
aI1
aI1
aI1
aI0
aI1
aI0
aI0
aI0
aI0
asg9
(lp2236
sg11
I00
sg12
I2
sg13
I3
sg14
Nsg15
I1
sba(iCollectionSetFactory
Collection
p2237
(dp2238
g7
(lp2239
I1
aI0
aI0
aI0
aI0
aI1
aI0
aI1
aI0
aI1
aI1
aI0
aI0
aI0
aI0
asg9
(lp2240
sg11
I00
sg12
I2
sg13
I3
sg14
Nsg15
I1
sba(iCollectionSetFactory
Collection
p2241
(dp2242
g7
(lp2243
I1
aI0
aI0
aI0
aI0
aI1
aI0
aI1
aI1
aI1
aI0
aI0
aI0
aI0
aI0
asg9
(lp2244
sg11
I00
sg12
I2
sg13
I3
sg14
Nsg15
I1
sba(iCollectionSetFactory
Collection
p2245
(dp2246
g7
(lp2247
I1
aI0
aI0
aI0
aI0
aI1
aI1
aI0
aI0
aI0
aI1
aI1
aI0
aI0
aI0
asg9
(lp2248
sg11
I00
sg12
I2
sg13
I3
sg14
Nsg15
I1
sba(iCollectionSetFactory
Collection
p2249
(dp2250
g7
(lp2251
I1
aI0
aI0
aI0
aI1
aI0
aI0
aI1
aI1
aI0
aI1
aI0
aI0
aI0
aI0
asg9
(lp2252
sg11
I00
sg12
I2
sg13
I3
sg14
Nsg15
I1
sba(iCollectionSetFactory
Collection
p2253
(dp2254
g7
(lp2255
I1
aI0
aI0
aI0
aI1
aI0
aI1
aI0
aI1
aI0
aI0
aI1
aI0
aI0
aI0
asg9
(lp2256
sg11
I00
sg12
I2
sg13
I3
sg14
Nsg15
I1
sba(iCollectionSetFactory
Collection
p2257
(dp2258
g7
(lp2259
I1
aI0
aI0
aI0
aI1
aI0
aI1
aI0
aI1
aI0
aI1
aI0
aI0
aI0
aI0
asg9
(lp2260
sg11
I00
sg12
I2
sg13
I3
sg14
Nsg15
I1
sba(iCollectionSetFactory
Collection
p2261
(dp2262
g7
(lp2263
I1
aI0
aI0
aI1
aI0
aI0
aI0
aI1
aI1
aI1
aI0
aI0
aI0
aI0
aI0
asg9
(lp2264
sg11
I00
sg12
I2
sg13
I3
sg14
Nsg15
I1
sba(iCollectionSetFactory
Collection
p2265
(dp2266
g7
(lp2267
I1
aI0
aI0
aI1
aI0
aI0
aI1
aI1
aI1
aI0
aI0
aI0
aI0
aI0
aI0
asg9
(lp2268
sg11
I00
sg12
I2
sg13
I3
sg14
Nsg15
I1
sba(iCollectionSetFactory
Collection
p2269
(dp2270
g7
(lp2271
I1
aI0
aI0
aI1
aI1
aI0
aI0
aI1
aI1
aI0
aI0
aI0
aI0
aI0
aI0
asg9
(lp2272
sg11
I00
sg12
I2
sg13
I3
sg14
Nsg15
I1
sba(iCollectionSetFactory
Collection
p2273
(dp2274
g7
(lp2275
I1
aI1
aI0
aI0
aI0
aI0
aI0
aI1
aI1
aI0
aI1
aI0
aI0
aI0
aI0
asg9
(lp2276
sg11
I00
sg12
I2
sg13
I3
sg14
Nsg15
I1
sba(iCollectionSetFactory
Collection
p2277
(dp2278
g7
(lp2279
I1
aI1
aI0
aI0
aI0
aI1
aI0
aI0
aI0
aI1
aI1
aI0
aI0
aI0
aI0
asg9
(lp2280
sg11
I00
sg12
I2
sg13
I3
sg14
Nsg15
I2
sba(iCollectionSetFactory
Collection
p2281
(dp2282
g7
(lp2283
I1
aI1
aI0
aI0
aI0
aI1
aI0
aI0
aI1
aI0
aI1
aI0
aI0
aI0
aI0
asg9
(lp2284
sg11
I00
sg12
I2
sg13
I3
sg14
Nsg15
I1
sba(iCollectionSetFactory
Collection
p2285
(dp2286
g7
(lp2287
I1
aI1
aI0
aI0
aI0
aI1
aI0
aI1
aI1
aI0
aI0
aI0
aI0
aI0
aI0
asg9
(lp2288
sg11
I00
sg12
I2
sg13
I3
sg14
Nsg15
I1
sba(iCollectionSetFactory
Collection
p2289
(dp2290
g7
(lp2291
I1
aI1
aI0
aI1
aI0
aI0
aI0
aI0
aI1
aI0
aI1
aI0
aI0
aI0
aI0
asg9
(lp2292
sg11
I00
sg12
I2
sg13
I3
sg14
Nsg15
I2
sba(iCollectionSetFactory
Collection
p2293
(dp2294
g7
(lp2295
I1
aI1
aI0
aI1
aI0
aI1
aI1
aI0
aI0
aI0
aI0
aI0
aI0
aI0
aI0
asg9
(lp2296
sg11
I00
sg12
I2
sg13
I3
sg14
Nsg15
I1
sba(iCollectionSetFactory
Collection
p2297
(dp2298
g7
(lp2299
I0
aI0
aI0
aI0
aI0
aI0
aI0
aI1
aI1
aI1
aI1
aI1
aI0
aI0
aI0
asg9
(lp2300
sg11
I00
sg12
I2
sg13
I2
sg14
Nsg15
I1
sba(iCollectionSetFactory
Collection
p2301
(dp2302
g7
(lp2303
I0
aI0
aI0
aI0
aI0
aI0
aI1
aI1
aI1
aI1
aI1
aI0
aI0
aI0
aI0
asg9
(lp2304
sg11
I00
sg12
I2
sg13
I2
sg14
Nsg15
I1
sba(iCollectionSetFactory
Collection
p2305
(dp2306
g7
(lp2307
I0
aI0
aI0
aI0
aI1
aI0
aI1
aI1
aI0
aI1
aI1
aI0
aI0
aI0
aI0
asg9
(lp2308
sg11
I00
sg12
I2
sg13
I2
sg14
Nsg15
I1
sba(iCollectionSetFactory
Collection
p2309
(dp2310
g7
(lp2311
I0
aI0
aI0
aI0
aI1
aI1
aI0
aI0
aI1
aI1
aI1
aI0
aI0
aI0
aI0
asg9
(lp2312
sg11
I00
sg12
I2
sg13
I2
sg14
Nsg15
I1
sba(iCollectionSetFactory
Collection
p2313
(dp2314
g7
(lp2315
I0
aI0
aI0
aI1
aI0
aI0
aI0
aI0
aI1
aI1
aI1
aI1
aI0
aI0
aI0
asg9
(lp2316
sg11
I00
sg12
I2
sg13
I2
sg14
Nsg15
I1
sba(iCollectionSetFactory
Collection
p2317
(dp2318
g7
(lp2319
I0
aI0
aI0
aI1
aI0
aI0
aI0
aI1
aI0
aI1
aI1
aI1
aI0
aI0
aI0
asg9
(lp2320
sg11
I00
sg12
I2
sg13
I2
sg14
Nsg15
I1
sba(iCollectionSetFactory
Collection
p2321
(dp2322
g7
(lp2323
I0
aI0
aI0
aI1
aI0
aI0
aI1
aI1
aI0
aI1
aI1
aI0
aI0
aI0
aI0
asg9
(lp2324
sg11
I00
sg12
I2
sg13
I2
sg14
Nsg15
I1
sba(iCollectionSetFactory
Collection
p2325
(dp2326
g7
(lp2327
I0
aI0
aI0
aI1
aI0
aI0
aI1
aI1
aI1
aI0
aI0
aI1
aI0
aI0
aI0
asg9
(lp2328
sg11
I00
sg12
I2
sg13
I2
sg14
Nsg15
I1
sba(iCollectionSetFactory
Collection
p2329
(dp2330
g7
(lp2331
I0
aI0
aI0
aI1
aI1
aI1
aI0
aI0
aI0
aI1
aI1
aI0
aI0
aI0
aI0
asg9
(lp2332
sg11
I00
sg12
I2
sg13
I2
sg14
Nsg15
I1
sba(iCollectionSetFactory
Collection
p2333
(dp2334
g7
(lp2335
I0
aI0
aI0
aI1
aI1
aI1
aI0
aI0
aI1
aI0
aI1
aI0
aI0
aI0
aI0
asg9
(lp2336
sg11
I00
sg12
I2
sg13
I2
sg14
Nsg15
I1
sba(iCollectionSetFactory
Collection
p2337
(dp2338
g7
(lp2339
I0
aI0
aI0
aI1
aI1
aI1
aI0
aI0
aI1
aI1
aI0
aI0
aI0
aI0
aI0
asg9
(lp2340
sg11
I00
sg12
I2
sg13
I2
sg14
Nsg15
I1
sba(iCollectionSetFactory
Collection
p2341
(dp2342
g7
(lp2343
I0
aI1
aI0
aI0
aI0
aI1
aI0
aI0
aI1
aI1
aI0
aI1
aI0
aI0
aI0
asg9
(lp2344
sg11
I00
sg12
I2
sg13
I2
sg14
Nsg15
I1
sba(iCollectionSetFactory
Collection
p2345
(dp2346
g7
(lp2347
I0
aI1
aI0
aI0
aI0
aI1
aI0
aI1
aI0
aI1
aI0
aI1
aI0
aI0
aI0
asg9
(lp2348
sg11
I00
sg12
I2
sg13
I2
sg14
Nsg15
I1
sba(iCollectionSetFactory
Collection
p2349
(dp2350
g7
(lp2351
I0
aI1
aI0
aI0
aI1
aI0
aI0
aI1
aI1
aI0
aI1
aI0
aI0
aI0
aI0
asg9
(lp2352
sg11
I00
sg12
I2
sg13
I2
sg14
Nsg15
I1
sba(iCollectionSetFactory
Collection
p2353
(dp2354
g7
(lp2355
I0
aI1
aI0
aI1
aI0
aI0
aI0
aI0
aI1
aI0
aI1
aI1
aI0
aI0
aI0
asg9
(lp2356
sg11
I00
sg12
I2
sg13
I2
sg14
Nsg15
I1
sba(iCollectionSetFactory
Collection
p2357
(dp2358
g7
(lp2359
I0
aI1
aI0
aI1
aI0
aI0
aI0
aI0
aI1
aI1
aI0
aI1
aI0
aI0
aI0
asg9
(lp2360
sg11
I00
sg12
I2
sg13
I2
sg14
Nsg15
I1
sba(iCollectionSetFactory
Collection
p2361
(dp2362
g7
(lp2363
I0
aI1
aI0
aI1
aI0
aI0
aI0
aI1
aI0
aI0
aI1
aI1
aI0
aI0
aI0
asg9
(lp2364
sg11
I00
sg12
I2
sg13
I2
sg14
Nsg15
I1
sba(iCollectionSetFactory
Collection
p2365
(dp2366
g7
(lp2367
I0
aI1
aI0
aI1
aI0
aI0
aI0
aI1
aI1
aI0
aI0
aI1
aI0
aI0
aI0
asg9
(lp2368
sg11
I00
sg12
I2
sg13
I2
sg14
Nsg15
I1
sba(iCollectionSetFactory
Collection
p2369
(dp2370
g7
(lp2371
I0
aI1
aI0
aI1
aI0
aI1
aI0
aI0
aI1
aI0
aI0
aI1
aI0
aI0
aI0
asg9
(lp2372
sg11
I00
sg12
I2
sg13
I2
sg14
Nsg15
I1
sba(iCollectionSetFactory
Collection
p2373
(dp2374
g7
(lp2375
I0
aI1
aI0
aI1
aI1
aI0
aI0
aI1
aI0
aI0
aI1
aI0
aI0
aI0
aI0
asg9
(lp2376
sg11
I00
sg12
I2
sg13
I2
sg14
Nsg15
I1
sba(iCollectionSetFactory
Collection
p2377
(dp2378
g7
(lp2379
I0
aI1
aI0
aI1
aI1
aI0
aI0
aI1
aI1
aI0
aI0
aI0
aI0
aI0
aI0
asg9
(lp2380
sg11
I00
sg12
I2
sg13
I2
sg14
Nsg15
I1
sba(iCollectionSetFactory
Collection
p2381
(dp2382
g7
(lp2383
I1
aI0
aI0
aI0
aI0
aI1
aI0
aI0
aI0
aI1
aI1
aI1
aI0
aI0
aI0
asg9
(lp2384
sg11
I00
sg12
I2
sg13
I2
sg14
Nsg15
I1
sba(iCollectionSetFactory
Collection
p2385
(dp2386
g7
(lp2387
I1
aI0
aI0
aI0
aI0
aI1
aI1
aI0
aI0
aI1
aI1
aI0
aI0
aI0
aI0
asg9
(lp2388
sg11
I00
sg12
I2
sg13
I2
sg14
Nsg15
I1
sba(iCollectionSetFactory
Collection
p2389
(dp2390
g7
(lp2391
I1
aI0
aI0
aI0
aI1
aI1
aI0
aI0
aI1
aI1
aI0
aI0
aI0
aI0
aI0
asg9
(lp2392
sg11
I00
sg12
I2
sg13
I2
sg14
Nsg15
I1
sba(iCollectionSetFactory
Collection
p2393
(dp2394
g7
(lp2395
I1
aI0
aI0
aI1
aI0
aI0
aI1
aI0
aI1
aI1
aI0
aI0
aI0
aI0
aI0
asg9
(lp2396
sg11
I00
sg12
I2
sg13
I2
sg14
Nsg15
I1
sba(iCollectionSetFactory
Collection
p2397
(dp2398
g7
(lp2399
I1
aI0
aI0
aI1
aI0
aI0
aI1
aI1
aI0
aI0
aI0
aI1
aI0
aI0
aI0
asg9
(lp2400
sg11
I00
sg12
I2
sg13
I2
sg14
Nsg15
I1
sba(iCollectionSetFactory
Collection
p2401
(dp2402
g7
(lp2403
I1
aI0
aI0
aI1
aI0
aI1
aI0
aI0
aI0
aI1
aI1
aI0
aI0
aI0
aI0
asg9
(lp2404
sg11
I00
sg12
I2
sg13
I2
sg14
Nsg15
I1
sba(iCollectionSetFactory
Collection
p2405
(dp2406
g7
(lp2407
I1
aI0
aI0
aI1
aI1
aI0
aI1
aI0
aI1
aI0
aI0
aI0
aI0
aI0
aI0
asg9
(lp2408
sg11
I00
sg12
I2
sg13
I2
sg14
Nsg15
I1
sba(iCollectionSetFactory
Collection
p2409
(dp2410
g7
(lp2411
I1
aI0
aI0
aI1
aI1
aI0
aI1
aI1
aI0
aI0
aI0
aI0
aI0
aI0
aI0
asg9
(lp2412
sg11
I00
sg12
I2
sg13
I2
sg14
Nsg15
I1
sba(iCollectionSetFactory
Collection
p2413
(dp2414
g7
(lp2415
I1
aI1
aI0
aI0
aI0
aI0
aI0
aI0
aI0
aI1
aI1
aI1
aI0
aI0
aI0
asg9
(lp2416
sg11
I00
sg12
I2
sg13
I2
sg14
Nsg15
I1
sba(iCollectionSetFactory
Collection
p2417
(dp2418
g7
(lp2419
I1
aI1
aI0
aI0
aI0
aI0
aI0
aI1
aI0
aI1
aI1
aI0
aI0
aI0
aI0
asg9
(lp2420
sg11
I00
sg12
I2
sg13
I2
sg14
Nsg15
I1
sba(iCollectionSetFactory
Collection
p2421
(dp2422
g7
(lp2423
I1
aI1
aI0
aI0
aI0
aI1
aI0
aI0
aI0
aI0
aI1
aI1
aI0
aI0
aI0
asg9
(lp2424
sg11
I00
sg12
I2
sg13
I2
sg14
Nsg15
I1
sba(iCollectionSetFactory
Collection
p2425
(dp2426
g7
(lp2427
I1
aI1
aI0
aI0
aI0
aI1
aI0
aI0
aI0
aI1
aI0
aI1
aI0
aI0
aI0
asg9
(lp2428
sg11
I00
sg12
I2
sg13
I2
sg14
Nsg15
I1
sba(iCollectionSetFactory
Collection
p2429
(dp2430
g7
(lp2431
I1
aI1
aI0
aI0
aI0
aI1
aI0
aI0
aI1
aI1
aI0
aI0
aI0
aI0
aI0
asg9
(lp2432
sg11
I00
sg12
I2
sg13
I2
sg14
Nsg15
I1
sba(iCollectionSetFactory
Collection
p2433
(dp2434
g7
(lp2435
I1
aI1
aI0
aI0
aI1
aI0
aI0
aI0
aI1
aI0
aI1
aI0
aI0
aI0
aI0
asg9
(lp2436
sg11
I00
sg12
I2
sg13
I2
sg14
Nsg15
I1
sba(iCollectionSetFactory
Collection
p2437
(dp2438
g7
(lp2439
I1
aI1
aI0
aI0
aI1
aI0
aI0
aI1
aI0
aI0
aI1
aI0
aI0
aI0
aI0
asg9
(lp2440
sg11
I00
sg12
I2
sg13
I2
sg14
Nsg15
I1
sba(iCollectionSetFactory
Collection
p2441
(dp2442
g7
(lp2443
I1
aI1
aI0
aI1
aI1
aI0
aI0
aI1
aI0
aI0
aI0
aI0
aI0
aI0
aI0
asg9
(lp2444
sg11
I00
sg12
I2
sg13
I2
sg14
Nsg15
I1
sba(iCollectionSetFactory
Collection
p2445
(dp2446
g7
(lp2447
I0
aI0
aI0
aI1
aI0
aI0
aI1
aI0
aI1
aI1
aI0
aI1
aI0
aI0
aI0
asg9
(lp2448
sg11
I01
sg12
I2
sg13
I1
sg14
Nsg15
I1
sba(iCollectionSetFactory
Collection
p2449
(dp2450
g7
(lp2451
I0
aI1
aI0
aI0
aI0
aI0
aI0
aI1
aI0
aI1
aI1
aI1
aI0
aI0
aI0
asg9
(lp2452
sg11
I01
sg12
I2
sg13
I1
sg14
Nsg15
I1
sba(iCollectionSetFactory
Collection
p2453
(dp2454
g7
(lp2455
I1
aI0
aI0
aI1
aI0
aI1
aI0
aI0
aI1
aI0
aI0
aI1
aI0
aI0
aI0
asg9
(lp2456
sg11
I01
sg12
I2
sg13
I1
sg14
Nsg15
I1
sba(iCollectionSetFactory
Collection
p2457
(dp2458
g7
(lp2459
I1
aI1
aI0
aI1
aI0
aI1
aI0
aI0
aI1
aI0
aI0
aI0
aI0
aI0
aI0
asg9
(lp2460
sg11
I01
sg12
I2
sg13
I1
sg14
Nsg15
I1
sba(iCollectionSetFactory
Collection
p2461
(dp2462
g7
(lp2463
I1
aI1
aI0
aI1
aI1
aI0
aI0
aI0
aI0
aI1
aI0
aI0
aI0
aI0
aI0
asg9
(lp2464
sg11
I01
sg12
I2
sg13
I1
sg14
Nsg15
I1
sbaa(lp2465
(iCollectionSetFactory
Collection
p2466
(dp2467
g7
(lp2468
I0
aI0
aI0
aI0
aI1
aI1
aI1
aI1
aI1
aI0
aI1
aI0
aI0
aI0
aI0
asg9
(lp2469
sg11
I00
sg12
I2
sg13
I8
sg14
Nsg15
I4
sba(iCollectionSetFactory
Collection
p2470
(dp2471
g7
(lp2472
I0
aI0
aI0
aI0
aI1
aI1
aI1
aI1
aI0
aI0
aI1
aI1
aI0
aI0
aI0
asg9
(lp2473
sg11
I00
sg12
I2
sg13
I7
sg14
Nsg15
I3
sba(iCollectionSetFactory
Collection
p2474
(dp2475
g7
(lp2476
I0
aI0
aI0
aI0
aI1
aI1
aI1
aI1
aI1
aI0
aI0
aI1
aI0
aI0
aI0
asg9
(lp2477
sg11
I00
sg12
I2
sg13
I7
sg14
Nsg15
I3
sba(iCollectionSetFactory
Collection
p2478
(dp2479
g7
(lp2480
I0
aI0
aI0
aI0
aI1
aI1
aI1
aI0
aI1
aI0
aI1
aI1
aI0
aI0
aI0
asg9
(lp2481
sg11
I00
sg12
I2
sg13
I5
sg14
Nsg15
I1
sba(iCollectionSetFactory
Collection
p2482
(dp2483
g7
(lp2484
I0
aI1
aI0
aI0
aI1
aI1
aI1
aI0
aI0
aI1
aI0
aI1
aI0
aI0
aI0
asg9
(lp2485
sg11
I00
sg12
I2
sg13
I5
sg14
Nsg15
I3
sba(iCollectionSetFactory
Collection
p2486
(dp2487
g7
(lp2488
I0
aI1
aI0
aI0
aI1
aI1
aI1
aI1
aI0
aI0
aI1
aI0
aI0
aI0
aI0
asg9
(lp2489
sg11
I00
sg12
I2
sg13
I5
sg14
Nsg15
I3
sba(iCollectionSetFactory
Collection
p2490
(dp2491
g7
(lp2492
I0
aI0
aI0
aI1
aI0
aI1
aI0
aI1
aI1
aI1
aI1
aI0
aI0
aI0
aI0
asg9
(lp2493
sg11
I00
sg12
I2
sg13
I4
sg14
Nsg15
I2
sba(iCollectionSetFactory
Collection
p2494
(dp2495
g7
(lp2496
I0
aI0
aI0
aI1
aI1
aI0
aI0
aI1
aI1
aI0
aI1
aI1
aI0
aI0
aI0
asg9
(lp2497
sg11
I00
sg12
I2
sg13
I3
sg14
Nsg15
I2
sba(iCollectionSetFactory
Collection
p2498
(dp2499
g7
(lp2500
I0
aI0
aI0
aI1
aI1
aI0
aI1
aI1
aI1
aI0
aI1
aI0
aI0
aI0
aI0
asg9
(lp2501
sg11
I00
sg12
I2
sg13
I3
sg14
Nsg15
I2
sba(iCollectionSetFactory
Collection
p2502
(dp2503
g7
(lp2504
I0
aI0
aI0
aI1
aI1
aI1
aI1
aI1
aI0
aI0
aI1
aI0
aI0
aI0
aI0
asg9
(lp2505
sg11
I00
sg12
I2
sg13
I3
sg14
Nsg15
I2
sba(iCollectionSetFactory
Collection
p2506
(dp2507
g7
(lp2508
I0
aI1
aI0
aI0
aI0
aI1
aI0
aI1
aI1
aI1
aI1
aI0
aI0
aI0
aI0
asg9
(lp2509
sg11
I00
sg12
I2
sg13
I3
sg14
Nsg15
I1
sba(iCollectionSetFactory
Collection
p2510
(dp2511
g7
(lp2512
I0
aI1
aI0
aI0
aI1
aI1
aI1
aI0
aI0
aI0
aI1
aI1
aI0
aI0
aI0
asg9
(lp2513
sg11
I00
sg12
I2
sg13
I3
sg14
Nsg15
I1
sba(iCollectionSetFactory
Collection
p2514
(dp2515
g7
(lp2516
I0
aI1
aI0
aI0
aI1
aI1
aI1
aI0
aI1
aI0
aI0
aI1
aI0
aI0
aI0
asg9
(lp2517
sg11
I00
sg12
I2
sg13
I3
sg14
Nsg15
I1
sba(iCollectionSetFactory
Collection
p2518
(dp2519
g7
(lp2520
I0
aI1
aI0
aI0
aI1
aI1
aI1
aI1
aI0
aI0
aI0
aI1
aI0
aI0
aI0
asg9
(lp2521
sg11
I00
sg12
I2
sg13
I3
sg14
Nsg15
I1
sba(iCollectionSetFactory
Collection
p2522
(dp2523
g7
(lp2524
I0
aI1
aI0
aI1
aI0
aI1
aI0
aI1
aI1
aI1
aI0
aI0
aI0
aI0
aI0
asg9
(lp2525
sg11
I00
sg12
I2
sg13
I3
sg14
Nsg15
I1
sba(iCollectionSetFactory
Collection
p2526
(dp2527
g7
(lp2528
I0
aI1
aI0
aI1
aI1
aI1
aI1
aI0
aI0
aI0
aI0
aI1
aI0
aI0
aI0
asg9
(lp2529
sg11
I00
sg12
I2
sg13
I3
sg14
Nsg15
I1
sba(iCollectionSetFactory
Collection
p2530
(dp2531
g7
(lp2532
I0
aI1
aI0
aI1
aI1
aI1
aI1
aI0
aI0
aI1
aI0
aI0
aI0
aI0
aI0
asg9
(lp2533
sg11
I00
sg12
I2
sg13
I3
sg14
Nsg15
I1
sba(iCollectionSetFactory
Collection
p2534
(dp2535
g7
(lp2536
I0
aI1
aI0
aI1
aI1
aI1
aI1
aI1
aI0
aI0
aI0
aI0
aI0
aI0
aI0
asg9
(lp2537
sg11
I00
sg12
I2
sg13
I3
sg14
Nsg15
I2
sba(iCollectionSetFactory
Collection
p2538
(dp2539
g7
(lp2540
I1
aI0
aI0
aI0
aI1
aI1
aI1
aI0
aI0
aI1
aI0
aI1
aI0
aI0
aI0
asg9
(lp2541
sg11
I00
sg12
I2
sg13
I3
sg14
Nsg15
I2
sba(iCollectionSetFactory
Collection
p2542
(dp2543
g7
(lp2544
I1
aI0
aI0
aI0
aI1
aI1
aI1
aI1
aI0
aI0
aI1
aI0
aI0
aI0
aI0
asg9
(lp2545
sg11
I00
sg12
I2
sg13
I3
sg14
Nsg15
I2
sba(iCollectionSetFactory
Collection
p2546
(dp2547
g7
(lp2548
I0
aI0
aI0
aI0
aI0
aI1
aI1
aI1
aI0
aI1
aI1
aI1
aI0
aI0
aI0
asg9
(lp2549
sg11
I00
sg12
I2
sg13
I2
sg14
Nsg15
I1
sba(iCollectionSetFactory
Collection
p2550
(dp2551
g7
(lp2552
I0
aI0
aI0
aI0
aI1
aI1
aI1
aI0
aI1
aI1
aI0
aI1
aI0
aI0
aI0
asg9
(lp2553
sg11
I00
sg12
I2
sg13
I2
sg14
Nsg15
I1
sba(iCollectionSetFactory
Collection
p2554
(dp2555
g7
(lp2556
I0
aI0
aI0
aI0
aI1
aI1
aI1
aI1
aI0
aI1
aI0
aI1
aI0
aI0
aI0
asg9
(lp2557
sg11
I00
sg12
I2
sg13
I2
sg14
Nsg15
I1
sba(iCollectionSetFactory
Collection
p2558
(dp2559
g7
(lp2560
I0
aI0
aI0
aI1
aI0
aI1
aI0
aI1
aI1
aI1
aI0
aI1
aI0
aI0
aI0
asg9
(lp2561
sg11
I00
sg12
I2
sg13
I2
sg14
Nsg15
I1
sba(iCollectionSetFactory
Collection
p2562
(dp2563
g7
(lp2564
I0
aI0
aI0
aI1
aI1
aI1
aI1
aI0
aI1
aI0
aI0
aI1
aI0
aI0
aI0
asg9
(lp2565
sg11
I00
sg12
I2
sg13
I2
sg14
Nsg15
I1
sba(iCollectionSetFactory
Collection
p2566
(dp2567
g7
(lp2568
I0
aI0
aI0
aI1
aI1
aI1
aI1
aI1
aI1
aI0
aI0
aI0
aI0
aI0
aI0
asg9
(lp2569
sg11
I00
sg12
I2
sg13
I2
sg14
Nsg15
I1
sba(iCollectionSetFactory
Collection
p2570
(dp2571
g7
(lp2572
I0
aI1
aI0
aI0
aI1
aI1
aI1
aI1
aI0
aI1
aI0
aI0
aI0
aI0
aI0
asg9
(lp2573
sg11
I00
sg12
I2
sg13
I2
sg14
Nsg15
I1
sba(iCollectionSetFactory
Collection
p2574
(dp2575
g7
(lp2576
I0
aI1
aI0
aI1
aI1
aI1
aI1
aI0
aI1
aI0
aI0
aI0
aI0
aI0
aI0
asg9
(lp2577
sg11
I00
sg12
I2
sg13
I2
sg14
Nsg15
I1
sba(iCollectionSetFactory
Collection
p2578
(dp2579
g7
(lp2580
I1
aI0
aI0
aI0
aI0
aI0
aI1
aI1
aI0
aI1
aI1
aI1
aI0
aI0
aI0
asg9
(lp2581
sg11
I00
sg12
I2
sg13
I2
sg14
Nsg15
I1
sba(iCollectionSetFactory
Collection
p2582
(dp2583
g7
(lp2584
I1
aI0
aI0
aI0
aI0
aI1
aI0
aI1
aI1
aI1
aI1
aI0
aI0
aI0
aI0
asg9
(lp2585
sg11
I00
sg12
I2
sg13
I2
sg14
Nsg15
I1
sba(iCollectionSetFactory
Collection
p2586
(dp2587
g7
(lp2588
I1
aI0
aI0
aI0
aI1
aI0
aI1
aI1
aI1
aI0
aI1
aI0
aI0
aI0
aI0
asg9
(lp2589
sg11
I00
sg12
I2
sg13
I2
sg14
Nsg15
I1
sba(iCollectionSetFactory
Collection
p2590
(dp2591
g7
(lp2592
I1
aI0
aI0
aI0
aI1
aI1
aI1
aI0
aI0
aI0
aI1
aI1
aI0
aI0
aI0
asg9
(lp2593
sg11
I00
sg12
I2
sg13
I2
sg14
Nsg15
I1
sba(iCollectionSetFactory
Collection
p2594
(dp2595
g7
(lp2596
I1
aI0
aI0
aI0
aI1
aI1
aI1
aI0
aI1
aI0
aI1
aI0
aI0
aI0
aI0
asg9
(lp2597
sg11
I00
sg12
I2
sg13
I2
sg14
Nsg15
I1
sba(iCollectionSetFactory
Collection
p2598
(dp2599
g7
(lp2600
I1
aI0
aI0
aI1
aI0
aI0
aI0
aI1
aI1
aI1
aI1
aI0
aI0
aI0
aI0
asg9
(lp2601
sg11
I00
sg12
I2
sg13
I2
sg14
Nsg15
I1
sba(iCollectionSetFactory
Collection
p2602
(dp2603
g7
(lp2604
I1
aI0
aI0
aI1
aI0
aI0
aI1
aI1
aI1
aI0
aI1
aI0
aI0
aI0
aI0
asg9
(lp2605
sg11
I00
sg12
I2
sg13
I2
sg14
Nsg15
I1
sba(iCollectionSetFactory
Collection
p2606
(dp2607
g7
(lp2608
I1
aI0
aI0
aI1
aI0
aI1
aI0
aI1
aI1
aI1
aI0
aI0
aI0
aI0
aI0
asg9
(lp2609
sg11
I00
sg12
I2
sg13
I2
sg14
Nsg15
I1
sba(iCollectionSetFactory
Collection
p2610
(dp2611
g7
(lp2612
I1
aI0
aI0
aI1
aI1
aI0
aI0
aI1
aI1
aI0
aI1
aI0
aI0
aI0
aI0
asg9
(lp2613
sg11
I00
sg12
I2
sg13
I2
sg14
Nsg15
I1
sba(iCollectionSetFactory
Collection
p2614
(dp2615
g7
(lp2616
I1
aI1
aI0
aI0
aI0
aI1
aI0
aI1
aI1
aI0
aI1
aI0
aI0
aI0
aI0
asg9
(lp2617
sg11
I00
sg12
I2
sg13
I2
sg14
Nsg15
I1
sba(iCollectionSetFactory
Collection
p2618
(dp2619
g7
(lp2620
I1
aI1
aI0
aI1
aI0
aI1
aI1
aI1
aI0
aI0
aI0
aI0
aI0
aI0
aI0
asg9
(lp2621
sg11
I00
sg12
I2
sg13
I2
sg14
Nsg15
I1
sba(iCollectionSetFactory
Collection
p2622
(dp2623
g7
(lp2624
I1
aI1
aI0
aI1
aI1
aI1
aI1
aI0
aI0
aI0
aI0
aI0
aI0
aI0
aI0
asg9
(lp2625
sg11
I00
sg12
I2
sg13
I2
sg14
Nsg15
I1
sba(iCollectionSetFactory
Collection
p2626
(dp2627
g7
(lp2628
I0
aI0
aI0
aI0
aI1
aI1
aI1
aI0
aI1
aI1
aI0
aI0
aI1
aI0
aI0
asg9
(lp2629
sg11
I01
sg12
I2
sg13
I1
sg14
Nsg15
I1
sba(iCollectionSetFactory
Collection
p2630
(dp2631
g7
(lp2632
I0
aI0
aI0
aI1
aI0
aI0
aI0
aI1
aI1
aI1
aI1
aI1
aI0
aI0
aI0
asg9
(lp2633
sg11
I01
sg12
I2
sg13
I1
sg14
Nsg15
I1
sba(iCollectionSetFactory
Collection
p2634
(dp2635
g7
(lp2636
I0
aI0
aI0
aI1
aI0
aI0
aI1
aI1
aI0
aI1
aI1
aI1
aI0
aI0
aI0
asg9
(lp2637
sg11
I01
sg12
I2
sg13
I1
sg14
Nsg15
I1
sba(iCollectionSetFactory
Collection
p2638
(dp2639
g7
(lp2640
I0
aI0
aI0
aI1
aI1
aI1
aI0
aI0
aI1
aI1
aI1
aI0
aI0
aI0
aI0
asg9
(lp2641
sg11
I01
sg12
I2
sg13
I1
sg14
Nsg15
I1
sba(iCollectionSetFactory
Collection
p2642
(dp2643
g7
(lp2644
I0
aI0
aI0
aI1
aI1
aI1
aI1
aI0
aI0
aI1
aI1
aI0
aI0
aI0
aI0
asg9
(lp2645
sg11
I01
sg12
I2
sg13
I1
sg14
Nsg15
I1
sba(iCollectionSetFactory
Collection
p2646
(dp2647
g7
(lp2648
I0
aI1
aI0
aI1
aI0
aI0
aI0
aI0
aI1
aI1
aI1
aI1
aI0
aI0
aI0
asg9
(lp2649
sg11
I01
sg12
I2
sg13
I1
sg14
Nsg15
I1
sba(iCollectionSetFactory
Collection
p2650
(dp2651
g7
(lp2652
I0
aI1
aI0
aI1
aI0
aI0
aI0
aI1
aI1
aI0
aI1
aI1
aI0
aI0
aI0
asg9
(lp2653
sg11
I01
sg12
I2
sg13
I1
sg14
Nsg15
I1
sba(iCollectionSetFactory
Collection
p2654
(dp2655
g7
(lp2656
I0
aI1
aI0
aI1
aI1
aI0
aI0
aI1
aI0
aI0
aI1
aI1
aI0
aI0
aI0
asg9
(lp2657
sg11
I01
sg12
I2
sg13
I1
sg14
Nsg15
I1
sba(iCollectionSetFactory
Collection
p2658
(dp2659
g7
(lp2660
I1
aI0
aI0
aI1
aI0
aI0
aI1
aI1
aI1
aI0
aI0
aI1
aI0
aI0
aI0
asg9
(lp2661
sg11
I01
sg12
I2
sg13
I1
sg14
Nsg15
I1
sba(iCollectionSetFactory
Collection
p2662
(dp2663
g7
(lp2664
I1
aI1
aI0
aI0
aI0
aI1
aI0
aI0
aI0
aI1
aI1
aI1
aI0
aI0
aI0
asg9
(lp2665
sg11
I01
sg12
I2
sg13
I1
sg14
Nsg15
I1
sba(iCollectionSetFactory
Collection
p2666
(dp2667
g7
(lp2668
I1
aI1
aI0
aI1
aI0
aI1
aI0
aI0
aI0
aI1
aI1
aI0
aI0
aI0
aI0
asg9
(lp2669
sg11
I01
sg12
I2
sg13
I1
sg14
Nsg15
I1
sbaa(lp2670
(iCollectionSetFactory
Collection
p2671
(dp2672
g7
(lp2673
I0
aI0
aI0
aI0
aI1
aI1
aI1
aI1
aI1
aI0
aI1
aI1
aI0
aI0
aI0
asg9
(lp2674
sg11
I00
sg12
I2
sg13
I4
sg14
Nsg15
I3
sba(iCollectionSetFactory
Collection
p2675
(dp2676
g7
(lp2677
I0
aI1
aI0
aI0
aI1
aI1
aI1
aI1
aI0
aI0
aI1
aI1
aI0
aI0
aI0
asg9
(lp2678
sg11
I01
sg12
I2
sg13
I2
sg14
Nsg15
I2
sba(iCollectionSetFactory
Collection
p2679
(dp2680
g7
(lp2681
I0
aI1
aI0
aI1
aI0
aI1
aI0
aI1
aI1
aI1
aI1
aI0
aI0
aI0
aI0
asg9
(lp2682
sg11
I01
sg12
I2
sg13
I2
sg14
Nsg15
I2
sba(iCollectionSetFactory
Collection
p2683
(dp2684
g7
(lp2685
I0
aI1
aI0
aI1
aI1
aI1
aI1
aI0
aI0
aI1
aI0
aI1
aI0
aI0
aI0
asg9
(lp2686
sg11
I01
sg12
I2
sg13
I2
sg14
Nsg15
I2
sba(iCollectionSetFactory
Collection
p2687
(dp2688
g7
(lp2689
I1
aI1
aI0
aI0
aI1
aI1
aI1
aI0
aI1
aI0
aI0
aI1
aI0
aI0
aI0
asg9
(lp2690
sg11
I00
sg12
I2
sg13
I2
sg14
Nsg15
I1
sba(iCollectionSetFactory
Collection
p2691
(dp2692
g7
(lp2693
I0
aI1
aI0
aI0
aI1
aI1
aI1
aI1
aI0
aI1
aI0
aI1
aI0
aI0
aI0
asg9
(lp2694
sg11
I01
sg12
I2
sg13
I1
sg14
Nsg15
I1
sba(iCollectionSetFactory
Collection
p2695
(dp2696
g7
(lp2697
I0
aI1
aI0
aI1
aI0
aI1
aI0
aI1
aI1
aI1
aI0
aI1
aI0
aI0
aI0
asg9
(lp2698
sg11
I01
sg12
I2
sg13
I1
sg14
Nsg15
I1
sba(iCollectionSetFactory
Collection
p2699
(dp2700
g7
(lp2701
I0
aI1
aI0
aI1
aI1
aI1
aI1
aI0
aI1
aI0
aI0
aI1
aI0
aI0
aI0
asg9
(lp2702
sg11
I01
sg12
I2
sg13
I1
sg14
Nsg15
I1
sba(iCollectionSetFactory
Collection
p2703
(dp2704
g7
(lp2705
I0
aI1
aI0
aI1
aI1
aI1
aI1
aI1
aI0
aI1
aI0
aI0
aI0
aI0
aI0
asg9
(lp2706
sg11
I01
sg12
I2
sg13
I1
sg14
Nsg15
I1
sba(iCollectionSetFactory
Collection
p2707
(dp2708
g7
(lp2709
I0
aI1
aI0
aI1
aI1
aI1
aI1
aI1
aI1
aI0
aI0
aI0
aI0
aI0
aI0
asg9
(lp2710
sg11
I01
sg12
I2
sg13
I1
sg14
Nsg15
I1
sba(iCollectionSetFactory
Collection
p2711
(dp2712
g7
(lp2713
I1
aI0
aI0
aI0
aI0
aI1
aI1
aI1
aI0
aI1
aI1
aI1
aI0
aI0
aI0
asg9
(lp2714
sg11
I01
sg12
I2
sg13
I1
sg14
Nsg15
I1
sba(iCollectionSetFactory
Collection
p2715
(dp2716
g7
(lp2717
I1
aI0
aI0
aI0
aI1
aI1
aI1
aI1
aI1
aI0
aI1
aI0
aI0
aI0
aI0
asg9
(lp2718
sg11
I01
sg12
I2
sg13
I1
sg14
Nsg15
I1
sba(iCollectionSetFactory
Collection
p2719
(dp2720
g7
(lp2721
I1
aI0
aI0
aI1
aI0
aI0
aI1
aI1
aI1
aI1
aI1
aI0
aI0
aI0
aI0
asg9
(lp2722
sg11
I01
sg12
I2
sg13
I1
sg14
Nsg15
I1
sba(iCollectionSetFactory
Collection
p2723
(dp2724
g7
(lp2725
I1
aI0
aI0
aI1
aI0
aI1
aI0
aI1
aI1
aI1
aI1
aI0
aI0
aI0
aI0
asg9
(lp2726
sg11
I01
sg12
I2
sg13
I1
sg14
Nsg15
I1
sba(iCollectionSetFactory
Collection
p2727
(dp2728
g7
(lp2729
I1
aI0
aI0
aI1
aI1
aI0
aI1
aI1
aI1
aI0
aI1
aI0
aI0
aI0
aI0
asg9
(lp2730
sg11
I01
sg12
I2
sg13
I1
sg14
Nsg15
I1
sba(iCollectionSetFactory
Collection
p2731
(dp2732
g7
(lp2733
I1
aI1
aI0
aI0
aI0
aI1
aI0
aI1
aI1
aI1
aI1
aI0
aI0
aI0
aI0
asg9
(lp2734
sg11
I01
sg12
I2
sg13
I1
sg14
Nsg15
I1
sba(iCollectionSetFactory
Collection
p2735
(dp2736
g7
(lp2737
I1
aI1
aI0
aI1
aI1
aI0
aI0
aI1
aI1
aI0
aI1
aI0
aI0
aI0
aI0
asg9
(lp2738
sg11
I01
sg12
I2
sg13
I1
sg14
Nsg15
I1
sba(iCollectionSetFactory
Collection
p2739
(dp2740
g7
(lp2741
I1
aI1
aI0
aI1
aI1
aI1
aI1
aI1
aI0
aI0
aI0
aI0
aI0
aI0
aI0
asg9
(lp2742
sg11
I01
sg12
I2
sg13
I1
sg14
Nsg15
I1
sbaa(lp2743
(iCollectionSetFactory
Collection
p2744
(dp2745
g7
(lp2746
I0
aI0
aI0
aI0
aI1
aI1
aI1
aI1
aI1
aI1
aI1
aI1
aI0
aI0
aI0
asg9
(lp2747
sg11
I01
sg12
I2
sg13
I1
sg14
Nsg15
I1
sba(iCollectionSetFactory
Collection
p2748
(dp2749
g7
(lp2750
I0
aI0
aI0
aI1
aI1
aI1
aI1
aI1
aI1
aI0
aI1
aI1
aI0
aI0
aI0
asg9
(lp2751
sg11
I01
sg12
I2
sg13
I1
sg14
Nsg15
I1
sba(iCollectionSetFactory
Collection
p2752
(dp2753
g7
(lp2754
I1
aI1
aI0
aI0
aI1
aI1
aI1
aI0
aI1
aI0
aI1
aI1
aI0
aI0
aI0
asg9
(lp2755
sg11
I01
sg12
I2
sg13
I1
sg14
Nsg15
I1
sba(iCollectionSetFactory
Collection
p2756
(dp2757
g7
(lp2758
I1
aI1
aI0
aI0
aI1
aI1
aI1
aI0
aI1
aI1
aI0
aI1
aI0
aI0
aI0
asg9
(lp2759
sg11
I01
sg12
I2
sg13
I1
sg14
Nsg15
I1
sbaasS'IRPcalculated'
p2760
I01
sS'min_rel_sup'
p2761
F0.0010638297872340426
sS'supportsCalculated'
p2762
I01
sS'totalBoundAddedValue'
p2763
I1760
sS'totalBoundAddedValueCalculated'
p2764
I01
sS'maximalsFlagged'
p2765
I01
sS'totalIRP'
p2766
F796.0
sS'addedValuesCalculated'
p2767
I01
sS'maximals'
p2768
(lp2769
g2756
ag2752
ag2748
ag2744
ag2739
ag2735
ag2731
ag2727
ag2723
ag2719
ag2715
ag2711
ag2707
ag2703
ag2699
ag2683
ag2679
ag2695
ag2691
ag2675
ag2666
ag2662
ag2658
ag2654
ag2650
ag2646
ag2642
ag2638
ag2634
ag2630
ag2626
ag2461
ag2457
ag2453
ag2449
ag2445
ag1932
ag1928
ag1924
ag991
ag987
asS'treeStrat'
p2770
I1
sS'totalAddedValue'
p2771
I5362
sS'treeBuilt'
p2772
I01
sS'totalAddedValueNoSingletons'
p2773
I3916
sS'totalAddedValueCalculated'
p2774
I01
sS'min_abs_sup'
p2775
I1
sS'attributes'
p2776
(lp2777
S'Keyboard Wrist Rest'
p2778
aS'O/S Documentation Set - English'
p2779
aS'Y Box'
p2780
aS'CD-RW, High Speed Pack of 5'
p2781
aS'Extension Cable'
p2782
aS'Mouse Pad'
p2783
aS'Standard Mouse'
p2784
aS'18inch Flat Panel Graphics Monitor'
p2785
aS'External 8X CD-ROM'
p2786
aS'Multimedia speakers- 3inch cones'
p2787
aS'SIMM- 16MB PCMCIAII card'
p2788
aS'Model SM26273 Black Ink Cartridge'
p2789
aS'Envoy 256MB - 40GB'
p2790
aS'Envoy Ambassador'
p2791
aS'Fake_klasa'
p2792
asS'transactionsTotal'
p2793
I940
sS'totalBoundAddedValueNoSingletons'
p2794
I314
sS'collectionsClosed'
p2795
I01
sb.