(iCollectionSetFactory
LayeredCollectionSet
p0
(dp1
S'layers'
p2
(lp3
(lp4
(iCollectionSetFactory
Collection
p5
(dp6
S'elements'
p7
(lp8
I0
aI0
aI0
aI0
aI0
aI1
aI0
aI0
aI0
aI0
aI0
aI0
aI0
aI0
aI0
asS'links'
p9
(lp10
sS'isMaximal'
p11
I00
sS'boundness'
p12
I0
sS'support'
p13
I303
sS'IRP'
p14
NsS'added_value'
p15
I130
sba(iCollectionSetFactory
Collection
p16
(dp17
g7
(lp18
I0
aI0
aI0
aI0
aI0
aI0
aI1
aI0
aI0
aI0
aI0
aI0
aI0
aI0
aI0
asg9
(lp19
sg11
I00
sg12
I0
sg13
I302
sg14
Nsg15
I129
sba(iCollectionSetFactory
Collection
p20
(dp21
g7
(lp22
I0
aI0
aI0
aI0
aI0
aI0
aI0
aI0
aI0
aI0
aI1
aI0
aI0
aI0
aI0
asg9
(lp23
sg11
I00
sg12
I0
sg13
I299
sg14
Nsg15
I154
sba(iCollectionSetFactory
Collection
p24
(dp25
g7
(lp26
I0
aI0
aI0
aI0
aI1
aI0
aI0
aI0
aI0
aI0
aI0
aI0
aI0
aI0
aI0
asg9
(lp27
sg11
I00
sg12
I0
sg13
I293
sg14
Nsg15
I123
sba(iCollectionSetFactory
Collection
p28
(dp29
g7
(lp30
I0
aI0
aI0
aI0
aI0
aI0
aI0
aI1
aI0
aI0
aI0
aI0
aI0
aI0
aI0
asg9
(lp31
sg11
I00
sg12
I0
sg13
I292
sg14
Nsg15
I147
sba(iCollectionSetFactory
Collection
p32
(dp33
g7
(lp34
I0
aI0
aI0
aI0
aI0
aI0
aI0
aI0
aI1
aI0
aI0
aI0
aI0
aI0
aI0
asg9
(lp35
sg11
I00
sg12
I0
sg13
I287
sg14
Nsg15
I143
sba(iCollectionSetFactory
Collection
p36
(dp37
g7
(lp38
I0
aI0
aI0
aI1
aI0
aI0
aI0
aI0
aI0
aI0
aI0
aI0
aI0
aI0
aI0
asg9
(lp39
sg11
I00
sg12
I0
sg13
I275
sg14
Nsg15
I131
sba(iCollectionSetFactory
Collection
p40
(dp41
g7
(lp42
I0
aI0
aI0
aI0
aI0
aI0
aI0
aI0
aI0
aI0
aI0
aI1
aI0
aI0
aI0
asg9
(lp43
sg11
I00
sg12
I0
sg13
I204
sg14
Nsg15
I129
sba(iCollectionSetFactory
Collection
p44
(dp45
g7
(lp46
I0
aI0
aI0
aI0
aI0
aI0
aI0
aI0
aI0
aI1
aI0
aI0
aI0
aI0
aI0
asg9
(lp47
sg11
I00
sg12
I0
sg13
I184
sg14
Nsg15
I121
sba(iCollectionSetFactory
Collection
p48
(dp49
g7
(lp50
I0
aI1
aI0
aI0
aI0
aI0
aI0
aI0
aI0
aI0
aI0
aI0
aI0
aI0
aI0
asg9
(lp51
sg11
I00
sg12
I0
sg13
I183
sg14
Nsg15
I124
sba(iCollectionSetFactory
Collection
p52
(dp53
g7
(lp54
I1
aI0
aI0
aI0
aI0
aI0
aI0
aI0
aI0
aI0
aI0
aI0
aI0
aI0
aI0
asg9
(lp55
sg11
I00
sg12
I0
sg13
I177
sg14
Nsg15
I115
sbaa(lp56
(iCollectionSetFactory
Collection
p57
(dp58
g7
(lp59
I0
aI0
aI0
aI0
aI0
aI1
aI1
aI0
aI0
aI0
aI0
aI0
aI0
aI0
aI0
asg9
(lp60
(iCollectionSetFactory
CollectionLink
p61
(dp62
S'source'
p63
NsS'destination'
p64
g5
sS'type'
p65
S'child'
p66
sS'measure'
p67
Nsba(iCollectionSetFactory
CollectionLink
p68
(dp69
g63
Nsg64
g16
sg65
g66
sg67
Nsbasg11
I00
sg12
I0
sg13
I173
sg14
F137.0
sg15
I27
sba(iCollectionSetFactory
Collection
p70
(dp71
g7
(lp72
I0
aI0
aI0
aI0
aI1
aI0
aI1
aI0
aI0
aI0
aI0
aI0
aI0
aI0
aI0
asg9
(lp73
sg11
I00
sg12
I2
sg13
I170
sg14
Nsg15
I24
sba(iCollectionSetFactory
Collection
p74
(dp75
g7
(lp76
I0
aI0
aI0
aI0
aI1
aI1
aI0
aI0
aI0
aI0
aI0
aI0
aI0
aI0
aI0
asg9
(lp77
sg11
I00
sg12
I2
sg13
I167
sg14
Nsg15
I21
sba(iCollectionSetFactory
Collection
p78
(dp79
g7
(lp80
I0
aI0
aI0
aI0
aI0
aI0
aI0
aI1
aI0
aI0
aI1
aI0
aI0
aI0
aI0
asg9
(lp81
(iCollectionSetFactory
CollectionLink
p82
(dp83
g63
Nsg64
g20
sg65
g66
sg67
Nsba(iCollectionSetFactory
CollectionLink
p84
(dp85
g63
Nsg64
g28
sg65
g66
sg67
Nsbasg11
I00
sg12
I0
sg13
I145
sg14
F111.0
sg15
I96
sba(iCollectionSetFactory
Collection
p86
(dp87
g7
(lp88
I0
aI0
aI0
aI1
aI0
aI0
aI0
aI0
aI1
aI0
aI0
aI0
aI0
aI0
aI0
asg9
(lp89
(iCollectionSetFactory
CollectionLink
p90
(dp91
g63
Nsg64
g32
sg65
g66
sg67
Nsba(iCollectionSetFactory
CollectionLink
p92
(dp93
g63
Nsg64
g36
sg65
g66
sg67
Nsbasg11
I00
sg12
I0
sg13
I144
sg14
F144.0
sg15
I100
sba(iCollectionSetFactory
Collection
p94
(dp95
g7
(lp96
I0
aI0
aI0
aI0
aI0
aI1
aI0
aI0
aI1
aI0
aI0
aI0
aI0
aI0
aI0
asg9
(lp97
sg11
I00
sg12
I2
sg13
I97
sg14
Nsg15
I53
sba(iCollectionSetFactory
Collection
p98
(dp99
g7
(lp100
I0
aI0
aI0
aI0
aI0
aI0
aI1
aI1
aI0
aI0
aI0
aI0
aI0
aI0
aI0
asg9
(lp101
sg11
I00
sg12
I2
sg13
I90
sg14
Nsg15
I39
sba(iCollectionSetFactory
Collection
p102
(dp103
g7
(lp104
I0
aI0
aI0
aI0
aI0
aI1
aI0
aI1
aI0
aI0
aI0
aI0
aI0
aI0
aI0
asg9
(lp105
sg11
I00
sg12
I2
sg13
I89
sg14
Nsg15
I38
sba(iCollectionSetFactory
Collection
p106
(dp107
g7
(lp108
I0
aI0
aI0
aI0
aI1
aI0
aI0
aI0
aI0
aI0
aI1
aI0
aI0
aI0
aI0
asg9
(lp109
sg11
I00
sg12
I2
sg13
I89
sg14
Nsg15
I40
sba(iCollectionSetFactory
Collection
p110
(dp111
g7
(lp112
I0
aI0
aI0
aI0
aI0
aI0
aI1
aI0
aI0
aI0
aI1
aI0
aI0
aI0
aI0
asg9
(lp113
sg11
I00
sg12
I2
sg13
I86
sg14
Nsg15
I39
sba(iCollectionSetFactory
Collection
p114
(dp115
g7
(lp116
I0
aI0
aI0
aI0
aI0
aI1
aI0
aI0
aI0
aI0
aI1
aI0
aI0
aI0
aI0
asg9
(lp117
sg11
I00
sg12
I2
sg13
I86
sg14
Nsg15
I40
sba(iCollectionSetFactory
Collection
p118
(dp119
g7
(lp120
I0
aI0
aI0
aI1
aI0
aI0
aI0
aI1
aI0
aI0
aI0
aI0
aI0
aI0
aI0
asg9
(lp121
sg11
I00
sg12
I2
sg13
I86
sg14
Nsg15
I43
sba(iCollectionSetFactory
Collection
p122
(dp123
g7
(lp124
I0
aI0
aI0
aI0
aI1
aI0
aI0
aI1
aI0
aI0
aI0
aI0
aI0
aI0
aI0
asg9
(lp125
sg11
I00
sg12
I2
sg13
I85
sg14
Nsg15
I35
sba(iCollectionSetFactory
Collection
p126
(dp127
g7
(lp128
I0
aI0
aI0
aI0
aI0
aI0
aI0
aI0
aI1
aI0
aI1
aI0
aI0
aI0
aI0
asg9
(lp129
sg11
I00
sg12
I2
sg13
I84
sg14
Nsg15
I40
sba(iCollectionSetFactory
Collection
p130
(dp131
g7
(lp132
I0
aI0
aI0
aI1
aI0
aI0
aI0
aI0
aI0
aI0
aI1
aI0
aI0
aI0
aI0
asg9
(lp133
sg11
I00
sg12
I2
sg13
I82
sg14
Nsg15
I38
sba(iCollectionSetFactory
Collection
p134
(dp135
g7
(lp136
I0
aI0
aI0
aI0
aI0
aI0
aI0
aI1
aI1
aI0
aI0
aI0
aI0
aI0
aI0
asg9
(lp137
sg11
I00
sg12
I2
sg13
I78
sg14
Nsg15
I35
sba(iCollectionSetFactory
Collection
p138
(dp139
g7
(lp140
I0
aI0
aI0
aI0
aI1
aI0
aI0
aI0
aI1
aI0
aI0
aI0
aI0
aI0
aI0
asg9
(lp141
sg11
I00
sg12
I2
sg13
I77
sg14
Nsg15
I33
sba(iCollectionSetFactory
Collection
p142
(dp143
g7
(lp144
I0
aI0
aI0
aI0
aI0
aI0
aI1
aI0
aI0
aI0
aI0
aI1
aI0
aI0
aI0
asg9
(lp145
sg11
I00
sg12
I2
sg13
I75
sg14
Nsg15
I31
sba(iCollectionSetFactory
Collection
p146
(dp147
g7
(lp148
I0
aI0
aI0
aI0
aI0
aI1
aI0
aI0
aI0
aI0
aI0
aI1
aI0
aI0
aI0
asg9
(lp149
sg11
I00
sg12
I2
sg13
I73
sg14
Nsg15
I29
sba(iCollectionSetFactory
Collection
p150
(dp151
g7
(lp152
I0
aI0
aI0
aI0
aI0
aI0
aI1
aI0
aI1
aI0
aI0
aI0
aI0
aI0
aI0
asg9
(lp153
sg11
I00
sg12
I2
sg13
I71
sg14
Nsg15
I28
sba(iCollectionSetFactory
Collection
p154
(dp155
g7
(lp156
I0
aI0
aI0
aI1
aI0
aI1
aI0
aI0
aI0
aI0
aI0
aI0
aI0
aI0
aI0
asg9
(lp157
sg11
I00
sg12
I2
sg13
I71
sg14
Nsg15
I41
sba(iCollectionSetFactory
Collection
p158
(dp159
g7
(lp160
I0
aI0
aI0
aI1
aI0
aI0
aI1
aI0
aI0
aI0
aI0
aI0
aI0
aI0
aI0
asg9
(lp161
sg11
I00
sg12
I2
sg13
I66
sg14
Nsg15
I32
sba(iCollectionSetFactory
Collection
p162
(dp163
g7
(lp164
I0
aI0
aI0
aI1
aI1
aI0
aI0
aI0
aI0
aI0
aI0
aI0
aI0
aI0
aI0
asg9
(lp165
sg11
I00
sg12
I2
sg13
I64
sg14
Nsg15
I30
sba(iCollectionSetFactory
Collection
p166
(dp167
g7
(lp168
I0
aI0
aI0
aI0
aI0
aI0
aI0
aI1
aI0
aI0
aI0
aI1
aI0
aI0
aI0
asg9
(lp169
sg11
I00
sg12
I2
sg13
I63
sg14
Nsg15
I32
sba(iCollectionSetFactory
Collection
p170
(dp171
g7
(lp172
I0
aI0
aI0
aI0
aI0
aI1
aI0
aI0
aI0
aI1
aI0
aI0
aI0
aI0
aI0
asg9
(lp173
sg11
I00
sg12
I2
sg13
I63
sg14
Nsg15
I30
sba(iCollectionSetFactory
Collection
p174
(dp175
g7
(lp176
I1
aI0
aI0
aI0
aI0
aI0
aI0
aI0
aI0
aI0
aI1
aI0
aI0
aI0
aI0
asg9
(lp177
sg11
I00
sg12
I2
sg13
I62
sg14
Nsg15
I28
sba(iCollectionSetFactory
Collection
p178
(dp179
g7
(lp180
I0
aI0
aI0
aI0
aI0
aI0
aI0
aI0
aI0
aI0
aI1
aI1
aI0
aI0
aI0
asg9
(lp181
sg11
I00
sg12
I2
sg13
I61
sg14
Nsg15
I30
sba(iCollectionSetFactory
Collection
p182
(dp183
g7
(lp184
I0
aI0
aI0
aI0
aI0
aI0
aI0
aI0
aI1
aI1
aI0
aI0
aI0
aI0
aI0
asg9
(lp185
sg11
I00
sg12
I2
sg13
I60
sg14
Nsg15
I30
sba(iCollectionSetFactory
Collection
p186
(dp187
g7
(lp188
I0
aI0
aI0
aI0
aI1
aI0
aI0
aI0
aI0
aI0
aI0
aI1
aI0
aI0
aI0
asg9
(lp189
(iCollectionSetFactory
CollectionLink
p190
(dp191
g63
Nsg64
g24
sg65
g66
sg67
Nsba(iCollectionSetFactory
CollectionLink
p192
(dp193
g63
Nsg64
g40
sg65
g66
sg67
Nsbasg11
I00
sg12
I0
sg13
I60
sg14
F24.0
sg15
I19
sba(iCollectionSetFactory
Collection
p194
(dp195
g7
(lp196
I0
aI1
aI0
aI0
aI0
aI0
aI0
aI0
aI0
aI0
aI1
aI0
aI0
aI0
aI0
asg9
(lp197
sg11
I00
sg12
I2
sg13
I59
sg14
Nsg15
I32
sba(iCollectionSetFactory
Collection
p198
(dp199
g7
(lp200
I0
aI0
aI0
aI0
aI0
aI0
aI0
aI0
aI0
aI1
aI1
aI0
aI0
aI0
aI0
asg9
(lp201
sg11
I00
sg12
I2
sg13
I56
sg14
Nsg15
I27
sba(iCollectionSetFactory
Collection
p202
(dp203
g7
(lp204
I1
aI0
aI0
aI0
aI0
aI0
aI0
aI1
aI0
aI0
aI0
aI0
aI0
aI0
aI0
asg9
(lp205
sg11
I00
sg12
I2
sg13
I56
sg14
Nsg15
I22
sba(iCollectionSetFactory
Collection
p206
(dp207
g7
(lp208
I0
aI1
aI0
aI0
aI0
aI1
aI0
aI0
aI0
aI0
aI0
aI0
aI0
aI0
aI0
asg9
(lp209
sg11
I00
sg12
I2
sg13
I55
sg14
Nsg15
I22
sba(iCollectionSetFactory
Collection
p210
(dp211
g7
(lp212
I1
aI0
aI0
aI1
aI0
aI0
aI0
aI0
aI0
aI0
aI0
aI0
aI0
aI0
aI0
asg9
(lp213
sg11
I00
sg12
I2
sg13
I55
sg14
Nsg15
I27
sba(iCollectionSetFactory
Collection
p214
(dp215
g7
(lp216
I0
aI0
aI0
aI0
aI0
aI0
aI0
aI0
aI1
aI0
aI0
aI1
aI0
aI0
aI0
asg9
(lp217
sg11
I00
sg12
I2
sg13
I54
sg14
Nsg15
I25
sba(iCollectionSetFactory
Collection
p218
(dp219
g7
(lp220
I0
aI0
aI0
aI0
aI0
aI0
aI1
aI0
aI0
aI1
aI0
aI0
aI0
aI0
aI0
asg9
(lp221
sg11
I00
sg12
I2
sg13
I54
sg14
Nsg15
I21
sba(iCollectionSetFactory
Collection
p222
(dp223
g7
(lp224
I0
aI0
aI0
aI1
aI0
aI0
aI0
aI0
aI0
aI0
aI0
aI1
aI0
aI0
aI0
asg9
(lp225
sg11
I00
sg12
I2
sg13
I54
sg14
Nsg15
I25
sba(iCollectionSetFactory
Collection
p226
(dp227
g7
(lp228
I0
aI1
aI0
aI1
aI0
aI0
aI0
aI0
aI0
aI0
aI0
aI0
aI0
aI0
aI0
asg9
(lp229
sg11
I00
sg12
I2
sg13
I53
sg14
Nsg15
I30
sba(iCollectionSetFactory
Collection
p230
(dp231
g7
(lp232
I0
aI0
aI0
aI0
aI0
aI0
aI0
aI1
aI0
aI1
aI0
aI0
aI0
aI0
aI0
asg9
(lp233
sg11
I00
sg12
I2
sg13
I52
sg14
Nsg15
I23
sba(iCollectionSetFactory
Collection
p234
(dp235
g7
(lp236
I0
aI0
aI0
aI1
aI0
aI0
aI0
aI0
aI0
aI1
aI0
aI0
aI0
aI0
aI0
asg9
(lp237
sg11
I00
sg12
I2
sg13
I52
sg14
Nsg15
I22
sba(iCollectionSetFactory
Collection
p238
(dp239
g7
(lp240
I0
aI1
aI0
aI0
aI0
aI0
aI1
aI0
aI0
aI0
aI0
aI0
aI0
aI0
aI0
asg9
(lp241
sg11
I00
sg12
I2
sg13
I52
sg14
Nsg15
I19
sba(iCollectionSetFactory
Collection
p242
(dp243
g7
(lp244
I1
aI0
aI0
aI0
aI0
aI0
aI1
aI0
aI0
aI0
aI0
aI0
aI0
aI0
aI0
asg9
(lp245
sg11
I00
sg12
I2
sg13
I51
sg14
Nsg15
I22
sba(iCollectionSetFactory
Collection
p246
(dp247
g7
(lp248
I0
aI1
aI0
aI0
aI0
aI0
aI0
aI0
aI1
aI0
aI0
aI0
aI0
aI0
aI0
asg9
(lp249
sg11
I00
sg12
I2
sg13
I49
sg14
Nsg15
I26
sba(iCollectionSetFactory
Collection
p250
(dp251
g7
(lp252
I0
aI1
aI0
aI0
aI0
aI0
aI0
aI1
aI0
aI0
aI0
aI0
aI0
aI0
aI0
asg9
(lp253
sg11
I00
sg12
I2
sg13
I48
sg14
Nsg15
I21
sba(iCollectionSetFactory
Collection
p254
(dp255
g7
(lp256
I0
aI1
aI0
aI0
aI1
aI0
aI0
aI0
aI0
aI0
aI0
aI0
aI0
aI0
aI0
asg9
(lp257
sg11
I00
sg12
I2
sg13
I47
sg14
Nsg15
I16
sba(iCollectionSetFactory
Collection
p258
(dp259
g7
(lp260
I1
aI0
aI0
aI0
aI0
aI0
aI0
aI0
aI1
aI0
aI0
aI0
aI0
aI0
aI0
asg9
(lp261
sg11
I00
sg12
I2
sg13
I46
sg14
Nsg15
I18
sba(iCollectionSetFactory
Collection
p262
(dp263
g7
(lp264
I0
aI0
aI0
aI0
aI1
aI0
aI0
aI0
aI0
aI1
aI0
aI0
aI0
aI0
aI0
asg9
(lp265
sg11
I00
sg12
I2
sg13
I45
sg14
Nsg15
I16
sba(iCollectionSetFactory
Collection
p266
(dp267
g7
(lp268
I1
aI0
aI0
aI0
aI1
aI0
aI0
aI0
aI0
aI0
aI0
aI0
aI0
aI0
aI0
asg9
(lp269
sg11
I00
sg12
I2
sg13
I45
sg14
Nsg15
I16
sba(iCollectionSetFactory
Collection
p270
(dp271
g7
(lp272
I1
aI0
aI0
aI0
aI0
aI1
aI0
aI0
aI0
aI0
aI0
aI0
aI0
aI0
aI0
asg9
(lp273
sg11
I00
sg12
I2
sg13
I44
sg14
Nsg15
I21
sba(iCollectionSetFactory
Collection
p274
(dp275
g7
(lp276
I0
aI0
aI0
aI0
aI0
aI0
aI0
aI0
aI0
aI1
aI0
aI1
aI0
aI0
aI0
asg9
(lp277
sg11
I00
sg12
I2
sg13
I42
sg14
Nsg15
I22
sba(iCollectionSetFactory
Collection
p278
(dp279
g7
(lp280
I0
aI1
aI0
aI0
aI0
aI0
aI0
aI0
aI0
aI1
aI0
aI0
aI0
aI0
aI0
asg9
(lp281
(iCollectionSetFactory
CollectionLink
p282
(dp283
g63
Nsg64
g44
sg65
g66
sg67
Nsba(iCollectionSetFactory
CollectionLink
p284
(dp285
g63
Nsg64
g48
sg65
g66
sg67
Nsbasg11
I01
sg12
I0
sg13
I42
sg14
F42.0
sg15
I42
sba(iCollectionSetFactory
Collection
p286
(dp287
g7
(lp288
I0
aI1
aI0
aI0
aI0
aI0
aI0
aI0
aI0
aI0
aI0
aI1
aI0
aI0
aI0
asg9
(lp289
sg11
I01
sg12
I2
sg13
I41
sg14
Nsg15
I41
sba(iCollectionSetFactory
Collection
p290
(dp291
g7
(lp292
I1
aI0
aI0
aI0
aI0
aI0
aI0
aI0
aI0
aI1
aI0
aI0
aI0
aI0
aI0
asg9
(lp293
sg11
I01
sg12
I2
sg13
I35
sg14
Nsg15
I35
sba(iCollectionSetFactory
Collection
p294
(dp295
g7
(lp296
I1
aI1
aI0
aI0
aI0
aI0
aI0
aI0
aI0
aI0
aI0
aI0
aI0
aI0
aI0
asg9
(lp297
sg11
I01
sg12
I2
sg13
I33
sg14
Nsg15
I33
sba(iCollectionSetFactory
Collection
p298
(dp299
g7
(lp300
I1
aI0
aI0
aI0
aI0
aI0
aI0
aI0
aI0
aI0
aI0
aI1
aI0
aI0
aI0
asg9
(lp301
sg11
I01
sg12
I2
sg13
I31
sg14
Nsg15
I31
sbaa(lp302
(iCollectionSetFactory
Collection
p303
(dp304
g7
(lp305
I0
aI0
aI0
aI0
aI1
aI1
aI1
aI0
aI0
aI0
aI0
aI0
aI0
aI0
aI0
asg9
(lp306
sg11
I00
sg12
I2
sg13
I146
sg14
Nsg15
I102
sba(iCollectionSetFactory
Collection
p307
(dp308
g7
(lp309
I0
aI0
aI0
aI0
aI0
aI1
aI1
aI1
aI0
aI0
aI0
aI0
aI0
aI0
aI0
asg9
(lp310
sg11
I00
sg12
I2
sg13
I51
sg14
Nsg15
I7
sba(iCollectionSetFactory
Collection
p311
(dp312
g7
(lp313
I0
aI0
aI0
aI0
aI1
aI0
aI1
aI1
aI0
aI0
aI0
aI0
aI0
aI0
aI0
asg9
(lp314
sg11
I00
sg12
I2
sg13
I50
sg14
Nsg15
I6
sba(iCollectionSetFactory
Collection
p315
(dp316
g7
(lp317
I0
aI0
aI0
aI0
aI1
aI0
aI0
aI1
aI0
aI0
aI1
aI0
aI0
aI0
aI0
asg9
(lp318
sg11
I00
sg12
I2
sg13
I49
sg14
Nsg15
I23
sba(iCollectionSetFactory
Collection
p319
(dp320
g7
(lp321
I0
aI0
aI0
aI0
aI1
aI1
aI0
aI1
aI0
aI0
aI0
aI0
aI0
aI0
aI0
asg9
(lp322
sg11
I00
sg12
I2
sg13
I48
sg14
Nsg15
I4
sba(iCollectionSetFactory
Collection
p323
(dp324
g7
(lp325
I0
aI0
aI0
aI0
aI1
aI0
aI1
aI0
aI0
aI0
aI1
aI0
aI0
aI0
aI0
asg9
(lp326
sg11
I00
sg12
I2
sg13
I47
sg14
Nsg15
I7
sba(iCollectionSetFactory
Collection
p327
(dp328
g7
(lp329
I0
aI0
aI0
aI0
aI1
aI1
aI0
aI0
aI0
aI0
aI1
aI0
aI0
aI0
aI0
asg9
(lp330
sg11
I00
sg12
I2
sg13
I46
sg14
Nsg15
I6
sba(iCollectionSetFactory
Collection
p331
(dp332
g7
(lp333
I0
aI0
aI0
aI0
aI0
aI0
aI1
aI1
aI0
aI0
aI1
aI0
aI0
aI0
aI0
asg9
(lp334
sg11
I00
sg12
I2
sg13
I45
sg14
Nsg15
I19
sba(iCollectionSetFactory
Collection
p335
(dp336
g7
(lp337
I0
aI0
aI0
aI0
aI0
aI1
aI0
aI1
aI0
aI0
aI1
aI0
aI0
aI0
aI0
asg9
(lp338
sg11
I00
sg12
I2
sg13
I45
sg14
Nsg15
I20
sba(iCollectionSetFactory
Collection
p339
(dp340
g7
(lp341
I0
aI0
aI0
aI0
aI0
aI1
aI1
aI0
aI0
aI0
aI1
aI0
aI0
aI0
aI0
asg9
(lp342
sg11
I00
sg12
I2
sg13
I45
sg14
Nsg15
I5
sba(iCollectionSetFactory
Collection
p343
(dp344
g7
(lp345
I0
aI0
aI0
aI0
aI0
aI1
aI1
aI0
aI0
aI0
aI0
aI1
aI0
aI0
aI0
asg9
(lp346
sg11
I00
sg12
I2
sg13
I44
sg14
Nsg15
I8
sba(iCollectionSetFactory
Collection
p347
(dp348
g7
(lp349
I0
aI0
aI0
aI0
aI1
aI1
aI0
aI0
aI1
aI0
aI0
aI0
aI0
aI0
aI0
asg9
(lp350
sg11
I00
sg12
I2
sg13
I44
sg14
Nsg15
I8
sba(iCollectionSetFactory
Collection
p351
(dp352
g7
(lp353
I0
aI0
aI0
aI1
aI0
aI0
aI0
aI0
aI1
aI0
aI1
aI0
aI0
aI0
aI0
asg9
(lp354
sg11
I00
sg12
I2
sg13
I44
sg14
Nsg15
I23
sba(iCollectionSetFactory
Collection
p355
(dp356
g7
(lp357
I0
aI0
aI0
aI0
aI1
aI0
aI1
aI0
aI1
aI0
aI0
aI0
aI0
aI0
aI0
asg9
(lp358
sg11
I00
sg12
I2
sg13
I43
sg14
Nsg15
I7
sba(iCollectionSetFactory
Collection
p359
(dp360
g7
(lp361
I0
aI0
aI0
aI1
aI0
aI0
aI0
aI1
aI1
aI0
aI0
aI0
aI0
aI0
aI0
asg9
(lp362
sg11
I00
sg12
I2
sg13
I43
sg14
Nsg15
I22
sba(iCollectionSetFactory
Collection
p363
(dp364
g7
(lp365
I0
aI0
aI0
aI0
aI0
aI1
aI1
aI0
aI1
aI0
aI0
aI0
aI0
aI0
aI0
asg9
(lp366
sg11
I00
sg12
I2
sg13
I42
sg14
Nsg15
I6
sba(iCollectionSetFactory
Collection
p367
(dp368
g7
(lp369
I0
aI0
aI0
aI0
aI1
aI1
aI0
aI0
aI0
aI0
aI0
aI1
aI0
aI0
aI0
asg9
(lp370
sg11
I00
sg12
I2
sg13
I41
sg14
Nsg15
I5
sba(iCollectionSetFactory
Collection
p371
(dp372
g7
(lp373
I0
aI0
aI0
aI1
aI0
aI0
aI0
aI1
aI0
aI0
aI1
aI0
aI0
aI0
aI0
asg9
(lp374
sg11
I00
sg12
I2
sg13
I41
sg14
Nsg15
I20
sba(iCollectionSetFactory
Collection
p375
(dp376
g7
(lp377
I0
aI0
aI0
aI0
aI0
aI0
aI0
aI1
aI1
aI0
aI1
aI0
aI0
aI0
aI0
asg9
(lp378
sg11
I00
sg12
I2
sg13
I40
sg14
Nsg15
I19
sba(iCollectionSetFactory
Collection
p379
(dp380
g7
(lp381
I0
aI0
aI0
aI0
aI1
aI0
aI1
aI0
aI0
aI0
aI0
aI1
aI0
aI0
aI0
asg9
(lp382
sg11
I00
sg12
I2
sg13
I40
sg14
Nsg15
I4
sba(iCollectionSetFactory
Collection
p383
(dp384
g7
(lp385
I0
aI0
aI0
aI0
aI0
aI1
aI0
aI1
aI1
aI0
aI0
aI0
aI0
aI0
aI0
asg9
(lp386
sg11
I01
sg12
I2
sg13
I34
sg14
Nsg15
I34
sba(iCollectionSetFactory
Collection
p387
(dp388
g7
(lp389
I0
aI0
aI0
aI1
aI1
aI0
aI1
aI0
aI0
aI0
aI0
aI0
aI0
aI0
aI0
asg9
(lp390
sg11
I00
sg12
I2
sg13
I34
sg14
Nsg15
I8
sba(iCollectionSetFactory
Collection
p391
(dp392
g7
(lp393
I1
aI0
aI0
aI0
aI0
aI0
aI0
aI1
aI0
aI0
aI1
aI0
aI0
aI0
aI0
asg9
(lp394
(iCollectionSetFactory
CollectionLink
p395
(dp396
g63
Nsg64
g78
sg65
g66
sg67
Nsba(iCollectionSetFactory
CollectionLink
p397
(dp398
g63
Nsg64
g52
sg65
g66
sg67
Nsbasg11
I01
sg12
I0
sg13
I34
sg14
F102.0
sg15
I34
sba(iCollectionSetFactory
Collection
p399
(dp400
g7
(lp401
I0
aI0
aI0
aI0
aI0
aI1
aI1
aI0
aI0
aI1
aI0
aI0
aI0
aI0
aI0
asg9
(lp402
sg11
I00
sg12
I2
sg13
I33
sg14
Nsg15
I9
sba(iCollectionSetFactory
Collection
p403
(dp404
g7
(lp405
I0
aI1
aI0
aI0
aI0
aI1
aI1
aI0
aI0
aI0
aI0
aI0
aI0
aI0
aI0
asg9
(lp406
sg11
I00
sg12
I2
sg13
I33
sg14
Nsg15
I4
sba(iCollectionSetFactory
Collection
p407
(dp408
g7
(lp409
I0
aI0
aI0
aI0
aI0
aI0
aI0
aI1
aI0
aI0
aI1
aI1
aI0
aI0
aI0
asg9
(lp410
sg11
I01
sg12
I2
sg13
I31
sg14
Nsg15
I31
sba(iCollectionSetFactory
Collection
p411
(dp412
g7
(lp413
I0
aI1
aI0
aI0
aI1
aI1
aI0
aI0
aI0
aI0
aI0
aI0
aI0
aI0
aI0
asg9
(lp414
sg11
I00
sg12
I2
sg13
I31
sg14
Nsg15
I2
sba(iCollectionSetFactory
Collection
p415
(dp416
g7
(lp417
I0
aI0
aI0
aI0
aI1
aI0
aI0
aI0
aI1
aI0
aI1
aI0
aI0
aI0
aI0
asg9
(lp418
sg11
I01
sg12
I2
sg13
I30
sg14
Nsg15
I30
sba(iCollectionSetFactory
Collection
p419
(dp420
g7
(lp421
I0
aI0
aI0
aI1
aI0
aI0
aI0
aI0
aI1
aI1
aI0
aI0
aI0
aI0
aI0
asg9
(lp422
sg11
I01
sg12
I2
sg13
I30
sg14
Nsg15
I30
sba(iCollectionSetFactory
Collection
p423
(dp424
g7
(lp425
I0
aI0
aI0
aI1
aI0
aI1
aI1
aI0
aI0
aI0
aI0
aI0
aI0
aI0
aI0
asg9
(lp426
sg11
I00
sg12
I2
sg13
I30
sg14
Nsg15
I4
sba(iCollectionSetFactory
Collection
p427
(dp428
g7
(lp429
I0
aI0
aI0
aI1
aI1
aI1
aI0
aI0
aI0
aI0
aI0
aI0
aI0
aI0
aI0
asg9
(lp430
sg11
I00
sg12
I2
sg13
I30
sg14
Nsg15
I4
sba(iCollectionSetFactory
Collection
p431
(dp432
g7
(lp433
I0
aI1
aI0
aI0
aI1
aI0
aI1
aI0
aI0
aI0
aI0
aI0
aI0
aI0
aI0
asg9
(lp434
sg11
I00
sg12
I2
sg13
I30
sg14
Nsg15
I1
sba(iCollectionSetFactory
Collection
p435
(dp436
g7
(lp437
I0
aI0
aI0
aI0
aI0
aI0
aI0
aI1
aI0
aI1
aI1
aI0
aI0
aI0
aI0
asg9
(lp438
sg11
I01
sg12
I2
sg13
I29
sg14
Nsg15
I29
sba(iCollectionSetFactory
Collection
p439
(dp440
g7
(lp441
I0
aI0
aI0
aI0
aI0
aI1
aI0
aI0
aI1
aI0
aI1
aI0
aI0
aI0
aI0
asg9
(lp442
sg11
I01
sg12
I2
sg13
I29
sg14
Nsg15
I29
sba(iCollectionSetFactory
Collection
p443
(dp444
g7
(lp445
I0
aI0
aI0
aI0
aI1
aI1
aI0
aI0
aI0
aI1
aI0
aI0
aI0
aI0
aI0
asg9
(lp446
sg11
I00
sg12
I2
sg13
I29
sg14
Nsg15
I5
sba(iCollectionSetFactory
Collection
p447
(dp448
g7
(lp449
I0
aI0
aI0
aI1
aI0
aI0
aI0
aI0
aI1
aI0
aI0
aI1
aI0
aI0
aI0
asg9
(lp450
sg11
I01
sg12
I2
sg13
I29
sg14
Nsg15
I29
sba(iCollectionSetFactory
Collection
p451
(dp452
g7
(lp453
I0
aI0
aI0
aI1
aI0
aI1
aI0
aI0
aI1
aI0
aI0
aI0
aI0
aI0
aI0
asg9
(lp454
sg11
I01
sg12
I2
sg13
I29
sg14
Nsg15
I29
sba(iCollectionSetFactory
Collection
p455
(dp456
g7
(lp457
I1
aI0
aI0
aI0
aI1
aI0
aI1
aI0
aI0
aI0
aI0
aI0
aI0
aI0
aI0
asg9
(lp458
sg11
I00
sg12
I2
sg13
I29
sg14
Nsg15
I9
sba(iCollectionSetFactory
Collection
p459
(dp460
g7
(lp461
I0
aI0
aI0
aI0
aI1
aI0
aI0
aI1
aI1
aI0
aI0
aI0
aI0
aI0
aI0
asg9
(lp462
sg11
I01
sg12
I2
sg13
I28
sg14
Nsg15
I28
sba(iCollectionSetFactory
Collection
p463
(dp464
g7
(lp465
I1
aI0
aI0
aI1
aI0
aI0
aI0
aI0
aI1
aI0
aI0
aI0
aI0
aI0
aI0
asg9
(lp466
sg11
I01
sg12
I2
sg13
I28
sg14
Nsg15
I28
sba(iCollectionSetFactory
Collection
p467
(dp468
g7
(lp469
I0
aI0
aI0
aI1
aI0
aI1
aI0
aI1
aI0
aI0
aI0
aI0
aI0
aI0
aI0
asg9
(lp470
sg11
I01
sg12
I2
sg13
I27
sg14
Nsg15
I27
sba(iCollectionSetFactory
Collection
p471
(dp472
g7
(lp473
I0
aI1
aI0
aI0
aI0
aI0
aI0
aI1
aI0
aI0
aI1
aI0
aI0
aI0
aI0
asg9
(lp474
sg11
I01
sg12
I2
sg13
I27
sg14
Nsg15
I27
sba(iCollectionSetFactory
Collection
p475
(dp476
g7
(lp477
I0
aI0
aI0
aI0
aI0
aI1
aI0
aI0
aI1
aI0
aI0
aI1
aI0
aI0
aI0
asg9
(lp478
sg11
I01
sg12
I2
sg13
I26
sg14
Nsg15
I26
sba(iCollectionSetFactory
Collection
p479
(dp480
g7
(lp481
I0
aI0
aI0
aI0
aI1
aI0
aI1
aI0
aI0
aI1
aI0
aI0
aI0
aI0
aI0
asg9
(lp482
sg11
I00
sg12
I2
sg13
I26
sg14
Nsg15
I2
sba(iCollectionSetFactory
Collection
p483
(dp484
g7
(lp485
I0
aI0
aI0
aI0
aI0
aI1
aI0
aI0
aI1
aI1
aI0
aI0
aI0
aI0
aI0
asg9
(lp486
sg11
I01
sg12
I2
sg13
I25
sg14
Nsg15
I25
sba(iCollectionSetFactory
Collection
p487
(dp488
g7
(lp489
I0
aI0
aI0
aI1
aI1
aI0
aI0
aI0
aI1
aI0
aI0
aI0
aI0
aI0
aI0
asg9
(lp490
sg11
I01
sg12
I2
sg13
I25
sg14
Nsg15
I25
sba(iCollectionSetFactory
Collection
p491
(dp492
g7
(lp493
I0
aI0
aI0
aI0
aI0
aI0
aI1
aI1
aI0
aI0
aI0
aI1
aI0
aI0
aI0
asg9
(lp494
sg11
I01
sg12
I2
sg13
I23
sg14
Nsg15
I23
sba(iCollectionSetFactory
Collection
p495
(dp496
g7
(lp497
I0
aI0
aI0
aI0
aI0
aI0
aI1
aI1
aI1
aI0
aI0
aI0
aI0
aI0
aI0
asg9
(lp498
sg11
I01
sg12
I2
sg13
I23
sg14
Nsg15
I23
sba(iCollectionSetFactory
Collection
p499
(dp500
g7
(lp501
I0
aI1
aI0
aI1
aI0
aI0
aI0
aI0
aI1
aI0
aI0
aI0
aI0
aI0
aI0
asg9
(lp502
sg11
I01
sg12
I2
sg13
I23
sg14
Nsg15
I23
sba(iCollectionSetFactory
Collection
p503
(dp504
g7
(lp505
I1
aI0
aI0
aI0
aI0
aI1
aI1
aI0
aI0
aI0
aI0
aI0
aI0
aI0
aI0
asg9
(lp506
sg11
I00
sg12
I2
sg13
I23
sg14
Nsg15
I3
sba(iCollectionSetFactory
Collection
p507
(dp508
g7
(lp509
I1
aI0
aI0
aI0
aI1
aI1
aI0
aI0
aI0
aI0
aI0
aI0
aI0
aI0
aI0
asg9
(lp510
sg11
I00
sg12
I2
sg13
I23
sg14
Nsg15
I3
sba(iCollectionSetFactory
Collection
p511
(dp512
g7
(lp513
I0
aI0
aI0
aI0
aI0
aI0
aI1
aI0
aI0
aI0
aI1
aI1
aI0
aI0
aI0
asg9
(lp514
sg11
I01
sg12
I2
sg13
I22
sg14
Nsg15
I22
sba(iCollectionSetFactory
Collection
p515
(dp516
g7
(lp517
I0
aI0
aI0
aI1
aI0
aI0
aI1
aI1
aI0
aI0
aI0
aI0
aI0
aI0
aI0
asg9
(lp518
sg11
I01
sg12
I2
sg13
I22
sg14
Nsg15
I22
sba(iCollectionSetFactory
Collection
p519
(dp520
g7
(lp521
I0
aI0
aI0
aI0
aI0
aI0
aI1
aI0
aI1
aI0
aI1
aI0
aI0
aI0
aI0
asg9
(lp522
sg11
I01
sg12
I2
sg13
I21
sg14
Nsg15
I21
sba(iCollectionSetFactory
Collection
p523
(dp524
g7
(lp525
I0
aI0
aI0
aI1
aI0
aI0
aI0
aI1
aI0
aI0
aI0
aI1
aI0
aI0
aI0
asg9
(lp526
sg11
I01
sg12
I2
sg13
I21
sg14
Nsg15
I21
sba(iCollectionSetFactory
Collection
p527
(dp528
g7
(lp529
I0
aI0
aI0
aI1
aI0
aI0
aI1
aI0
aI1
aI0
aI0
aI0
aI0
aI0
aI0
asg9
(lp530
sg11
I01
sg12
I2
sg13
I21
sg14
Nsg15
I21
sba(iCollectionSetFactory
Collection
p531
(dp532
g7
(lp533
I0
aI0
aI0
aI1
aI1
aI0
aI0
aI0
aI0
aI0
aI1
aI0
aI0
aI0
aI0
asg9
(lp534
sg11
I01
sg12
I2
sg13
I21
sg14
Nsg15
I21
sba(iCollectionSetFactory
Collection
p535
(dp536
g7
(lp537
I0
aI1
aI0
aI0
aI0
aI1
aI0
aI1
aI0
aI0
aI0
aI0
aI0
aI0
aI0
asg9
(lp538
sg11
I01
sg12
I2
sg13
I21
sg14
Nsg15
I21
sba(iCollectionSetFactory
Collection
p539
(dp540
g7
(lp541
I1
aI0
aI0
aI1
aI0
aI0
aI0
aI1
aI0
aI0
aI0
aI0
aI0
aI0
aI0
asg9
(lp542
sg11
I01
sg12
I2
sg13
I21
sg14
Nsg15
I21
sba(iCollectionSetFactory
Collection
p543
(dp544
g7
(lp545
I0
aI0
aI0
aI0
aI0
aI1
aI0
aI0
aI0
aI1
aI0
aI1
aI0
aI0
aI0
asg9
(lp546
sg11
I01
sg12
I2
sg13
I20
sg14
Nsg15
I20
sba(iCollectionSetFactory
Collection
p547
(dp548
g7
(lp549
I0
aI0
aI0
aI0
aI0
aI1
aI0
aI1
aI0
aI0
aI0
aI1
aI0
aI0
aI0
asg9
(lp550
sg11
I01
sg12
I2
sg13
I20
sg14
Nsg15
I20
sba(iCollectionSetFactory
Collection
p551
(dp552
g7
(lp553
I0
aI0
aI0
aI1
aI1
aI0
aI0
aI1
aI0
aI0
aI0
aI0
aI0
aI0
aI0
asg9
(lp554
sg11
I01
sg12
I2
sg13
I20
sg14
Nsg15
I20
sba(iCollectionSetFactory
Collection
p555
(dp556
g7
(lp557
I0
aI1
aI0
aI0
aI0
aI1
aI0
aI0
aI0
aI0
aI1
aI0
aI0
aI0
aI0
asg9
(lp558
sg11
I01
sg12
I2
sg13
I20
sg14
Nsg15
I20
sbaa(lp559
(iCollectionSetFactory
Collection
p560
(dp561
g7
(lp562
I0
aI0
aI0
aI0
aI1
aI1
aI1
aI1
aI0
aI0
aI0
aI0
aI0
aI0
aI0
asg9
(lp563
sg11
I00
sg12
I2
sg13
I44
sg14
Nsg15
I22
sba(iCollectionSetFactory
Collection
p564
(dp565
g7
(lp566
I0
aI0
aI0
aI0
aI1
aI1
aI1
aI0
aI0
aI0
aI1
aI0
aI0
aI0
aI0
asg9
(lp567
sg11
I00
sg12
I2
sg13
I40
sg14
Nsg15
I18
sba(iCollectionSetFactory
Collection
p568
(dp569
g7
(lp570
I0
aI0
aI0
aI0
aI1
aI1
aI1
aI0
aI0
aI0
aI0
aI1
aI0
aI0
aI0
asg9
(lp571
(iCollectionSetFactory
CollectionLink
p572
(dp573
g63
Nsg64
g57
sg65
g66
sg67
Nsba(iCollectionSetFactory
CollectionLink
p574
(dp575
g63
Nsg64
g186
sg65
g66
sg67
Nsbasg11
I01
sg12
I0
sg13
I36
sg14
F216.0
sg15
I36
sba(iCollectionSetFactory
Collection
p576
(dp577
g7
(lp578
I0
aI0
aI0
aI0
aI1
aI1
aI1
aI0
aI1
aI0
aI0
aI0
aI0
aI0
aI0
asg9
(lp579
sg11
I01
sg12
I2
sg13
I36
sg14
Nsg15
I36
sba(iCollectionSetFactory
Collection
p580
(dp581
g7
(lp582
I0
aI1
aI0
aI0
aI1
aI1
aI1
aI0
aI0
aI0
aI0
aI0
aI0
aI0
aI0
asg9
(lp583
sg11
I01
sg12
I2
sg13
I29
sg14
Nsg15
I29
sba(iCollectionSetFactory
Collection
p584
(dp585
g7
(lp586
I0
aI0
aI0
aI0
aI1
aI0
aI1
aI1
aI0
aI0
aI1
aI0
aI0
aI0
aI0
asg9
(lp587
sg11
I00
sg12
I2
sg13
I26
sg14
Nsg15
I4
sba(iCollectionSetFactory
Collection
p588
(dp589
g7
(lp590
I0
aI0
aI0
aI1
aI1
aI1
aI1
aI0
aI0
aI0
aI0
aI0
aI0
aI0
aI0
asg9
(lp591
sg11
I01
sg12
I2
sg13
I26
sg14
Nsg15
I26
sba(iCollectionSetFactory
Collection
p592
(dp593
g7
(lp594
I0
aI0
aI0
aI0
aI0
aI1
aI1
aI1
aI0
aI0
aI1
aI0
aI0
aI0
aI0
asg9
(lp595
sg11
I00
sg12
I2
sg13
I25
sg14
Nsg15
I3
sba(iCollectionSetFactory
Collection
p596
(dp597
g7
(lp598
I0
aI0
aI0
aI0
aI1
aI1
aI0
aI1
aI0
aI0
aI1
aI0
aI0
aI0
aI0
asg9
(lp599
sg11
I00
sg12
I2
sg13
I24
sg14
Nsg15
I2
sba(iCollectionSetFactory
Collection
p600
(dp601
g7
(lp602
I0
aI0
aI0
aI0
aI1
aI1
aI1
aI0
aI0
aI1
aI0
aI0
aI0
aI0
aI0
asg9
(lp603
sg11
I01
sg12
I2
sg13
I24
sg14
Nsg15
I24
sba(iCollectionSetFactory
Collection
p604
(dp605
g7
(lp606
I0
aI0
aI0
aI1
aI0
aI0
aI0
aI1
aI1
aI0
aI1
aI0
aI0
aI0
aI0
asg9
(lp607
sg11
I01
sg12
I2
sg13
I21
sg14
Nsg15
I21
sba(iCollectionSetFactory
Collection
p608
(dp609
g7
(lp610
I1
aI0
aI0
aI0
aI1
aI1
aI1
aI0
aI0
aI0
aI0
aI0
aI0
aI0
aI0
asg9
(lp611
sg11
I01
sg12
I2
sg13
I20
sg14
Nsg15
I20
sbaa(lp612
(iCollectionSetFactory
Collection
p613
(dp614
g7
(lp615
I0
aI0
aI0
aI0
aI1
aI1
aI1
aI1
aI0
aI0
aI1
aI0
aI0
aI0
aI0
asg9
(lp616
sg11
I01
sg12
I2
sg13
I22
sg14
Nsg15
I22
sbaasS'IRPcalculated'
p617
I01
sS'min_rel_sup'
p618
F0.021276595744680851
sS'supportsCalculated'
p619
I01
sS'totalBoundAddedValue'
p620
I1800
sS'totalBoundAddedValueCalculated'
p621
I01
sS'maximalsFlagged'
p622
I01
sS'totalIRP'
p623
F776.0
sS'addedValuesCalculated'
p624
I01
sS'maximals'
p625
(lp626
g613
ag608
ag580
ag588
ag604
ag576
ag600
ag568
ag539
ag463
ag391
ag499
ag535
ag555
ag471
ag551
ag487
ag531
ag467
ag451
ag515
ag527
ag523
ag419
ag447
ag459
ag415
ag383
ag547
ag483
ag439
ag475
ag543
ag495
ag491
ag519
ag511
ag435
ag407
ag294
ag290
ag298
ag278
ag286
asS'treeStrat'
p627
I1
sS'totalAddedValue'
p628
I4620
sS'treeBuilt'
p629
I01
sS'totalAddedValueNoSingletons'
p630
I3174
sS'totalAddedValueCalculated'
p631
I01
sS'min_abs_sup'
p632
I20
sS'attributes'
p633
(lp634
S'Keyboard Wrist Rest'
p635
aS'O/S Documentation Set - English'
p636
aS'Y Box'
p637
aS'CD-RW, High Speed Pack of 5'
p638
aS'Extension Cable'
p639
aS'Mouse Pad'
p640
aS'Standard Mouse'
p641
aS'18inch Flat Panel Graphics Monitor'
p642
aS'External 8X CD-ROM'
p643
aS'Multimedia speakers- 3inch cones'
p644
aS'SIMM- 16MB PCMCIAII card'
p645
aS'Model SM26273 Black Ink Cartridge'
p646
aS'Envoy 256MB - 40GB'
p647
aS'Envoy Ambassador'
p648
aS'Fake_klasa'
p649
asS'transactionsTotal'
p650
I940
sS'totalBoundAddedValueNoSingletons'
p651
I354
sS'collectionsClosed'
p652
I01
sb.