(lp0
csip
_unpickle_type
p1
(S'PyQt4.QtCore'
p2
S'QPointF'
p3
(F2500.0
F700.0
tp4
tp5
Rp6
ag1
(g2
S'QPointF'
p7
(F2454.666666666667
F465.77777777777771
tp8
tp9
Rp10
ag1
(g2
S'QPointF'
p11
(F2367.3333333333335
F223.6666666666666
tp12
tp13
Rp14
ag1
(g2
S'QPointF'
p15
(F2495.333333333333
F185.99999999999994
tp16
tp17
Rp18
ag1
(g2
S'QPointF'
p19
(F2587.9999999999995
F483.11111111111103
tp20
tp21
Rp22
ag1
(g2
S'QPointF'
p23
(F2597.6666666666661
F253.6666666666666
tp24
tp25
Rp26
ag1
(g2
S'QPointF'
p27
(F2762.9999999999995
F240.33333333333329
tp28
tp29
Rp30
ag1
(g2
S'QPointF'
p31
(F2167.0
F700.0
tp32
tp33
Rp34
ag1
(g2
S'QPointF'
p35
(F2117.0
F522.22222222222217
tp36
tp37
Rp38
ag1
(g2
S'QPointF'
p39
(F1987.0
F404.77777777777771
tp40
tp41
Rp42
ag1
(g2
S'QPointF'
p43
(F2162.0
F361.4444444444444
tp44
tp45
Rp46
ag1
(g2
S'QPointF'
p47
(F2301.6666666666665
F444.44444444444434
tp48
tp49
Rp50
ag1
(g2
S'QPointF'
p51
(F2833.0
F700.0
tp52
tp53
Rp54
ag1
(g2
S'QPointF'
p55
(F2786.0
F507.22222222222217
tp56
tp57
Rp58
ag1
(g2
S'QPointF'
p59
(F2887.0
F526.22222222222217
tp60
tp61
Rp62
ag1
(g2
S'QPointF'
p63
(F1834.0
F700.0
tp64
tp65
Rp66
ag1
(g2
S'QPointF'
p67
(F1787.0
F523.22222222222217
tp68
tp69
Rp70
ag1
(g2
S'QPointF'
p71
(F1960.0
F577.55555555555543
tp72
tp73
Rp74
a.