(lp0
csip
_unpickle_type
p1
(S'PyQt4.QtCore'
p2
S'QPointF'
p3
(F2500.0
F700.0
tp4
tp5
Rp6
ag1
(g2
S'QPointF'
p7
(F2500.0
F344.4444444444444
tp8
tp9
Rp10
ag1
(g2
S'QPointF'
p11
(F2395.0
F161.66666666666663
tp12
tp13
Rp14
ag1
(g2
S'QPointF'
p15
(F2553.0
F165.66666666666663
tp16
tp17
Rp18
ag1
(g2
S'QPointF'
p19
(F2650.0
F147.66666666666663
tp20
tp21
Rp22
ag1
(g2
S'QPointF'
p23
(F2755.0
F146.66666666666663
tp24
tp25
Rp26
a.