(lp0
csip
_unpickle_type
p1
(S'PyQt4.QtCore'
p2
S'QPointF'
p3
(F2327.536231884058
F681.15942028985512
tp4
tp5
Rp6
ag1
(g2
S'QPointF'
p7
(F2247.101449275362
F591.92546583850935
tp8
tp9
Rp10
ag1
(g2
S'QPointF'
p11
(F2168.1159420289855
F502.69151138716359
tp12
tp13
Rp14
ag1
(g2
S'QPointF'
p15
(F2116.6666666666665
F430.84886128364388
tp16
tp17
Rp18
ag1
(g2
S'QPointF'
p19
(F2042.0289855072465
F361.90476190476187
tp20
tp21
Rp22
ag1
(g2
S'QPointF'
p23
(F1960.144927536232
F298.75776397515534
tp24
tp25
Rp26
ag1
(g2
S'QPointF'
p27
(F1915.942028985507
F238.50931677018639
tp28
tp29
Rp30
ag1
(g2
S'QPointF'
p31
(F1854.246376811594
F152.52173913043475
tp32
tp33
Rp34
ag1
(g2
S'QPointF'
p35
(F2003.7246376811595
F156.21739130434779
tp36
tp37
Rp38
ag1
(g2
S'QPointF'
p39
(F2072.5362318840575
F234.98550724637676
tp40
tp41
Rp42
ag1
(g2
S'QPointF'
p43
(F2136.3043478260865
F295.59420289855069
tp44
tp45
Rp46
ag1
(g2
S'QPointF'
p47
(F2207.4202898550725
F355.82608695652169
tp48
tp49
Rp50
ag1
(g2
S'QPointF'
p51
(F2296.028985507246
F416.73913043478262
tp52
tp53
Rp54
ag1
(g2
S'QPointF'
p55
(F2335.4057971014495
F491.71014492753636
tp56
tp57
Rp58
ag1
(g2
S'QPointF'
p59
(F2442.652173913044
F563.21739130434776
tp60
tp61
Rp62
a.