(lp0
csip
_unpickle_type
p1
(S'PyQt4.QtCore'
p2
S'QPointF'
p3
(F2488.4057971014486
F698.55072463768136
tp4
tp5
Rp6
ag1
(g2
S'QPointF'
p7
(F2170.2988792029892
F643.34578663345792
tp8
tp9
Rp10
ag1
(g2
S'QPointF'
p11
(F2088.7920298879203
F568.26424716835663
tp12
tp13
Rp14
ag1
(g2
S'QPointF'
p15
(F1951.1207970112082
F538.38818715531045
tp16
tp17
Rp18
ag1
(g2
S'QPointF'
p19
(F1879.2029887920301
F481.11486686829147
tp20
tp21
Rp22
ag1
(g2
S'QPointF'
p23
(F1773.0386052303857
F410.14291644428624
tp24
tp25
Rp26
ag1
(g2
S'QPointF'
p27
(F1760.0249066002491
F336.43123999288395
tp28
tp29
Rp30
ag1
(g2
S'QPointF'
p31
(F1686.7372353673723
F264.08942655518001
tp32
tp33
Rp34
ag1
(g2
S'QPointF'
p35
(F1678.5728518057285
F158.65172270651723
tp36
tp37
Rp38
ag1
(g2
S'QPointF'
p39
(F1849.5454545454545
F156.93939393939391
tp40
tp41
Rp42
ag1
(g2
S'QPointF'
p43
(F1987.4221668742216
F204.03528435035281
tp44
tp45
Rp46
ag1
(g2
S'QPointF'
p47
(F2037.2166874221666
F266.02158572021585
tp48
tp49
Rp50
ag1
(g2
S'QPointF'
p51
(F2123.2988792029882
F317.66542133665416
tp52
tp53
Rp54
ag1
(g2
S'QPointF'
p55
(F2114.9290161892905
F412.70651722706509
tp56
tp57
Rp58
ag1
(g2
S'QPointF'
p59
(F2267.9838107098381
F424.92569530925687
tp60
tp61
Rp62
ag1
(g2
S'QPointF'
p63
(F2319.2988792029892
F531.84350352843489
tp64
tp65
Rp66
ag1
(g2
S'QPointF'
p67
(F2554.5454545454545
F155.93939393939391
tp68
tp69
Rp70
ag1
(g2
S'QPointF'
p71
(F2649.5454545454545
F183.93939393939391
tp72
tp73
Rp74
ag1
(g2
S'QPointF'
p75
(F2777.181818181818
F309.84848484848482
tp76
tp77
Rp78
ag1
(g2
S'QPointF'
p79
(F2821.8181818181815
F400.39393939393926
tp80
tp81
Rp82
ag1
(g2
S'QPointF'
p83
(F3005.9090909090905
F327.66666666666663
tp84
tp85
Rp86
ag1
(g2
S'QPointF'
p87
(F2975.5454545454545
F403.57575757575751
tp88
tp89
Rp90
ag1
(g2
S'QPointF'
p91
(F2962.4545454545455
F501.21212121212119
tp92
tp93
Rp94
a.