(lp0
csip
_unpickle_type
p1
(S'PyQt4.QtCore'
p2
S'QPointF'
p3
(F2591.2909836065564
F779.48258196721326
tp4
tp5
Rp6
ag1
(g2
S'QPointF'
p7
(F2245.4747267759567
F680.17296057767408
tp8
tp9
Rp10
ag1
(g2
S'QPointF'
p11
(F2114.6345628415311
F486.99136416861802
tp12
tp13
Rp14
ag1
(g2
S'QPointF'
p15
(F2456.864754098362
F472.22262880562062
tp16
tp17
Rp18
ag1
(g2
S'QPointF'
p19
(F2326.5368852459014
F402.97984972677614
tp20
tp21
Rp22
ag1
(g2
S'QPointF'
p23
(F2255.2254098360663
F320.62231654957077
tp24
tp25
Rp26
ag1
(g2
S'QPointF'
p27
(F2082.2745901639337
F315.31396370023413
tp28
tp29
Rp30
ag1
(g2
S'QPointF'
p31
(F1961.7827868852473
F265.74331576893042
tp32
tp33
Rp34
ag1
(g2
S'QPointF'
p35
(F1885.5532786885251
F201.41856947697113
tp36
tp37
Rp38
ag1
(g2
S'QPointF'
p39
(F1812.6024590163943
F148.56923302107725
tp40
tp41
Rp42
ag1
(g2
S'QPointF'
p43
(F1977.3565573770484
F67.851044106167024
tp44
tp45
Rp46
ag1
(g2
S'QPointF'
p47
(F1902.8483606557384
F10.968920765027292
tp48
tp49
Rp50
ag1
(g2
S'QPointF'
p51
(F2072.3401639344265
F12.47711748633867
tp52
tp53
Rp54
ag1
(g2
S'QPointF'
p55
(F2103.6844262295081
F112.81933060109282
tp56
tp57
Rp58
ag1
(g2
S'QPointF'
p59
(F2010.6844262295072
F175.21482240437149
tp60
tp61
Rp62
ag1
(g2
S'QPointF'
p63
(F2367.4221311475412
F103.19842896174862
tp64
tp65
Rp66
ag1
(g2
S'QPointF'
p67
(F2552.5860655737706
F116.80498633879779
tp68
tp69
Rp70
ag1
(g2
S'QPointF'
p71
(F2574.5368852459014
F187.13285519125679
tp72
tp73
Rp74
ag1
(g2
S'QPointF'
p75
(F2467.4221311475412
F311.05088797814187
tp76
tp77
Rp78
ag1
(g2
S'QPointF'
p79
(F2566.618852459017
F398.00170765027315
tp80
tp81
Rp82
ag1
(g2
S'QPointF'
p83
(F1864.3401639344265
F444.18203551912575
tp84
tp85
Rp86
ag1
(g2
S'QPointF'
p87
(F2322.7172131147536
F537.42793715846983
tp88
tp89
Rp90
ag1
(g2
S'QPointF'
p91
(F2508.9631147540986
F579.37875683060111
tp92
tp93
Rp94
ag1
(g2
S'QPointF'
p95
(F2843.8319672131156
F659.26400273224044
tp96
tp97
Rp98
ag1
(g2
S'QPointF'
p99
(F2656.9467213114749
F493.16564207650276
tp100
tp101
Rp102
ag1
(g2
S'QPointF'
p103
(F2781.372950819672
F571.77219945355182
tp104
tp105
Rp106
a.