(lp0
csip
_unpickle_type
p1
(S'PyQt4.QtCore'
p2
S'QPointF'
p3
(F2500.0
F700.0
tp4
tp5
Rp6
ag1
(g2
S'QPointF'
p7
(F2411.2903225806449
F598.17204301075265
tp8
tp9
Rp10
ag1
(g2
S'QPointF'
p11
(F2314.516129032258
F494.73118279569894
tp12
tp13
Rp14
ag1
(g2
S'QPointF'
p15
(F2254.838709677419
F392.90322580645159
tp16
tp17
Rp18
ag1
(g2
S'QPointF'
p19
(F2206.4516129032263
F281.39784946236557
tp20
tp21
Rp22
ag1
(g2
S'QPointF'
p23
(F2097.1612903225805
F161.11827956989239
tp24
tp25
Rp26
ag1
(g2
S'QPointF'
p27
(F2301.838709677419
F157.47311827956986
tp28
tp29
Rp30
ag1
(g2
S'QPointF'
p31
(F2390.0967741935488
F276.4086021505376
tp32
tp33
Rp34
ag1
(g2
S'QPointF'
p35
(F2413.677419354839
F384.79569892473125
tp36
tp37
Rp38
ag1
(g2
S'QPointF'
p39
(F2475.4193548387102
F487.15053763440858
tp40
tp41
Rp42
ag1
(g2
S'QPointF'
p43
(F2604.677419354839
F581.89247311827955
tp44
tp45
Rp46
a.