(lp0
csip
_unpickle_type
p1
(S'PyQt4.QtCore'
p2
S'QPointF'
p3
(F2500.0
F700.0
tp4
tp5
Rp6
ag1
(g2
S'QPointF'
p7
(F2248.5915492957747
F605.29845741113331
tp8
tp9
Rp10
ag1
(g2
S'QPointF'
p11
(F2228.1690140845071
F472.70288397048961
tp12
tp13
Rp14
ag1
(g2
S'QPointF'
p15
(F2117.605633802817
F424.74849094567401
tp16
tp17
Rp18
ag1
(g2
S'QPointF'
p19
(F2053.5211267605628
F371.16029510395703
tp20
tp21
Rp22
ag1
(g2
S'QPointF'
p23
(F1999.2957746478864
F323.20590207914154
tp24
tp25
Rp26
ag1
(g2
S'QPointF'
p27
(F1933.8028169014076
F278.0684104627768
tp28
tp29
Rp30
ag1
(g2
S'QPointF'
p31
(F1951.4084507042253
F231.52246814218643
tp32
tp33
Rp34
ag1
(g2
S'QPointF'
p35
(F1849.2957746478871
F160.94835680751171
tp36
tp37
Rp38
ag1
(g2
S'QPointF'
p39
(F2074.0563380281683
F127.90610328638496
tp40
tp41
Rp42
ag1
(g2
S'QPointF'
p43
(F2101.4084507042248
F181.42723004694835
tp44
tp45
Rp46
ag1
(g2
S'QPointF'
p47
(F2141.8450704225343
F248.58215962441312
tp48
tp49
Rp50
ag1
(g2
S'QPointF'
p51
(F2395.140845070423
F160.25821596244131
tp52
tp53
Rp54
ag1
(g2
S'QPointF'
p55
(F2485.140845070423
F174.25821596244131
tp56
tp57
Rp58
ag1
(g2
S'QPointF'
p59
(F3018.9873417721519
F101.43881856540082
tp60
tp61
Rp62
ag1
(g2
S'QPointF'
p63
(F2463.5942235692642
F428.73584120758301
tp64
tp65
Rp66
ag1
(g2
S'QPointF'
p67
(F3305.1265822784808
F113.03375527426158
tp68
tp69
Rp70
ag1
(g2
S'QPointF'
p71
(F3356.9620253164558
F268.3881856540084
tp72
tp73
Rp74
ag1
(g2
S'QPointF'
p75
(F3197.0
F178.66666666666663
tp76
tp77
Rp78
ag1
(g2
S'QPointF'
p79
(F3351.9620253164558
F283.37552742616026
tp80
tp81
Rp82
ag1
(g2
S'QPointF'
p83
(F3386.075949367088
F418.10970464135011
tp84
tp85
Rp86
ag1
(g2
S'QPointF'
p87
(F3468.2911392405063
F339.94514767932486
tp88
tp89
Rp90
ag1
(g2
S'QPointF'
p91
(F3542.5063291139236
F509.84388185654001
tp92
tp93
Rp94
a.