(lp0
csip
_unpickle_type
p1
(S'PyQt4.QtCore'
p2
S'QPointF'
p3
(F1999.5093916456394
F638.02915615363042
tp4
tp5
Rp6
ag1
(g2
S'QPointF'
p7
(F1941.8979534622927
F544.39865433137095
tp8
tp9
Rp10
ag1
(g2
S'QPointF'
p11
(F1875.2873563218395
F446.63302495093905
tp12
tp13
Rp14
ag1
(g2
S'QPointF'
p15
(F1825.3434258480506
F362.32408186150826
tp16
tp17
Rp18
ag1
(g2
S'QPointF'
p19
(F1788.1535038932147
F259.65146459028557
tp20
tp21
Rp22
ag1
(g2
S'QPointF'
p23
(F1739.8175750834257
F155.07823507601037
tp24
tp25
Rp26
ag1
(g2
S'QPointF'
p27
(F1898.6051167964406
F165.77456433073786
tp28
tp29
Rp30
ag1
(g2
S'QPointF'
p31
(F1936.4321151776589
F264.62778878066854
tp32
tp33
Rp34
ag1
(g2
S'QPointF'
p35
(F2006.547193358474
F357.93996943306468
tp36
tp37
Rp38
ag1
(g2
S'QPointF'
p39
(F2019.4185951870645
F456.87353608797468
tp40
tp41
Rp42
ag1
(g2
S'QPointF'
p43
(F2090.3085994374965
F532.65803919440759
tp44
tp45
Rp46
a.