(lp0
csip
_unpickle_type
p1
(S'PyQt4.QtCore'
p2
S'QPointF'
p3
(F2500.0
F700.0
tp4
tp5
Rp6
ag1
(g2
S'QPointF'
p7
(F2415.4205607476633
F626.06438213914851
tp8
tp9
Rp10
ag1
(g2
S'QPointF'
p11
(F2301.0944417117557
F521.69344701317129
tp12
tp13
Rp14
ag1
(g2
S'QPointF'
p15
(F2214.1539596655193
F432.97671749467122
tp16
tp17
Rp18
ag1
(g2
S'QPointF'
p19
(F2134.9606492867679
F342.77203913209809
tp20
tp21
Rp22
ag1
(g2
S'QPointF'
p23
(F2090.1869158878503
F251.46062195988407
tp24
tp25
Rp26
ag1
(g2
S'QPointF'
p27
(F2022.4840137727492
F159.8314477783243
tp28
tp29
Rp30
ag1
(g2
S'QPointF'
p31
(F2265.2540834845736
F155.54325468844519
tp32
tp33
Rp34
ag1
(g2
S'QPointF'
p35
(F2318.2382414301946
F250.27814621956114
tp36
tp37
Rp38
ag1
(g2
S'QPointF'
p39
(F2395.0825008056731
F340.53711462026001
tp40
tp41
Rp42
ag1
(g2
S'QPointF'
p43
(F2465.5143409603597
F432.21677946073686
tp44
tp45
Rp46
ag1
(g2
S'QPointF'
p47
(F2510.0538188849505
F525.05693414974758
tp48
tp49
Rp50
ag1
(g2
S'QPointF'
p51
(F2642.5704653065268
F595.15582108298827
tp52
tp53
Rp54
a.