(lp0
csip
_unpickle_type
p1
(S'PyQt4.QtCore'
p2
S'QPointF'
p3
(F2842.3076923076919
F894.23076923076928
tp4
tp5
Rp6
ag1
(g2
S'QPointF'
p7
(F2442.8546224417792
F815.65513996706625
tp8
tp9
Rp10
ag1
(g2
S'QPointF'
p11
(F2344.886395898734
F612.36428866925542
tp12
tp13
Rp14
ag1
(g2
S'QPointF'
p15
(F2131.5103044600405
F781.61244859562589
tp16
tp17
Rp18
ag1
(g2
S'QPointF'
p19
(F2032.2885964548136
F669.54473391332533
tp20
tp21
Rp22
ag1
(g2
S'QPointF'
p23
(F1824.5433600398514
F576.9858402076427
tp24
tp25
Rp26
ag1
(g2
S'QPointF'
p27
(F1738.1283988542477
F463.50245814627914
tp28
tp29
Rp30
ag1
(g2
S'QPointF'
p31
(F1806.1594503715387
F277.80665547799919
tp32
tp33
Rp34
ag1
(g2
S'QPointF'
p35
(F1700.9717298351934
F58.539928321363789
tp36
tp37
Rp38
ag1
(g2
S'QPointF'
p39
(F2072.0684129685746
F51.918192259260707
tp40
tp41
Rp42
ag1
(g2
S'QPointF'
p43
(F2125.3619909502254
F224.36349924585221
tp44
tp45
Rp46
ag1
(g2
S'QPointF'
p47
(F2376.7692307692314
F184.35897435897431
tp48
tp49
Rp50
ag1
(g2
S'QPointF'
p51
(F2077.0976231341342
F467.68003328652406
tp52
tp53
Rp54
ag1
(g2
S'QPointF'
p55
(F2343.341290893014
F400.18656056587076
tp56
tp57
Rp58
ag1
(g2
S'QPointF'
p59
(F2601.9230769230771
F260.5128205128205
tp60
tp61
Rp62
ag1
(g2
S'QPointF'
p63
(F2613.6153846153852
F523.74358974358961
tp64
tp65
Rp66
ag1
(g2
S'QPointF'
p67
(F2728.0
F413.74358974358967
tp68
tp69
Rp70
ag1
(g2
S'QPointF'
p71
(F2909.6153846153848
F308.66666666666663
tp72
tp73
Rp74
ag1
(g2
S'QPointF'
p75
(F3098.23076923077
F223.5128205128205
tp76
tp77
Rp78
ag1
(g2
S'QPointF'
p79
(F3189.3846153846152
F360.8205128205127
tp80
tp81
Rp82
ag1
(g2
S'QPointF'
p83
(F3384.6923076923076
F246.05128205128202
tp84
tp85
Rp86
ag1
(g2
S'QPointF'
p87
(F3358.8461538461534
F394.28205128205127
tp88
tp89
Rp90
ag1
(g2
S'QPointF'
p91
(F3279.6153846153848
F653.58974358974353
tp92
tp93
Rp94
a.