(lp0
csip
_unpickle_type
p1
(S'PyQt4.QtCore'
p2
S'QPointF'
p3
(F2500.0
F700.0
tp4
tp5
Rp6
ag1
(g2
S'QPointF'
p7
(F2336.6666666666665
F514.66666666666652
tp8
tp9
Rp10
ag1
(g2
S'QPointF'
p11
(F2211.9999999999995
F221.33333333333326
tp12
tp13
Rp14
ag1
(g2
S'QPointF'
p15
(F2451.6666666666665
F245.6666666666666
tp16
tp17
Rp18
ag1
(g2
S'QPointF'
p19
(F2716.3333333333339
F238.33333333333337
tp20
tp21
Rp22
a.