(lp0
csip
_unpickle_type
p1
(S'PyQt4.QtCore'
p2
S'QPointF'
p3
(F2441.9354838709678
F650.79569892473114
tp4
tp5
Rp6
ag1
(g2
S'QPointF'
p7
(F2376.2580645161288
F560.1863799283152
tp8
tp9
Rp10
ag1
(g2
S'QPointF'
p11
(F2287.3225806451615
F449.02150537634401
tp12
tp13
Rp14
ag1
(g2
S'QPointF'
p15
(F2361.462365591397
F387.46236559139794
tp16
tp17
Rp18
ag1
(g2
S'QPointF'
p19
(F2489.4623655913983
F553.86379928315398
tp20
tp21
Rp22
ag1
(g2
S'QPointF'
p23
(F2396.5483870967728
F170.9032258064515
tp24
tp25
Rp26
ag1
(g2
S'QPointF'
p27
(F2563.2150537634407
F238.90322580645159
tp28
tp29
Rp30
ag1
(g2
S'QPointF'
p31
(F2147.9462365591398
F647.95698924731187
tp32
tp33
Rp34
ag1
(g2
S'QPointF'
p35
(F2078.4408602150538
F521.7132616487454
tp36
tp37
Rp38
ag1
(g2
S'QPointF'
p39
(F2032.9032258064503
F253.32258064516131
tp40
tp41
Rp42
ag1
(g2
S'QPointF'
p43
(F2145.1182795698924
F168.84946236559131
tp44
tp45
Rp46
ag1
(g2
S'QPointF'
p47
(F2198.5053763440851
F552.49820788530451
tp48
tp49
Rp50
ag1
(g2
S'QPointF'
p51
(F2284.2795698924738
F277.60215053763443
tp52
tp53
Rp54
ag1
(g2
S'QPointF'
p55
(F2171.8387096774186
F386.62365591397833
tp56
tp57
Rp58
ag1
(g2
S'QPointF'
p59
(F2751.7096774193556
F648.88308152987611
tp60
tp61
Rp62
ag1
(g2
S'QPointF'
p63
(F2705.6666666666665
F547.55555555555543
tp64
tp65
Rp66
ag1
(g2
S'QPointF'
p67
(F2647.6344086021504
F377.17562724014329
tp68
tp69
Rp70
ag1
(g2
S'QPointF'
p71
(F2857.688172043011
F185.25089605734757
tp72
tp73
Rp74
ag1
(g2
S'QPointF'
p75
(F2859.505376344086
F404.03584229390668
tp76
tp77
Rp78
a.