(lp0
csip
_unpickle_type
p1
(S'PyQt4.QtCore'
p2
S'QPointF'
p3
(F2500.0
F700.0
tp4
tp5
Rp6
ag1
(g2
S'QPointF'
p7
(F2450.0
F522.22222222222217
tp8
tp9
Rp10
ag1
(g2
S'QPointF'
p11
(F2400.0
F344.4444444444444
tp12
tp13
Rp14
ag1
(g2
S'QPointF'
p15
(F2259.0000000000005
F169.75757575757572
tp16
tp17
Rp18
ag1
(g2
S'QPointF'
p19
(F2413.3636363636369
F186.21212121212116
tp20
tp21
Rp22
ag1
(g2
S'QPointF'
p23
(F2510.454545454546
F400.03030303030289
tp24
tp25
Rp26
ag1
(g2
S'QPointF'
p27
(F2672.545454545455
F234.75757575757569
tp28
tp29
Rp30
a.