(lp0
csip
_unpickle_type
p1
(S'PyQt4.QtCore'
p2
S'QPointF'
p3
(F2500.0
F700.0
tp4
tp5
Rp6
ag1
(g2
S'QPointF'
p7
(F2450.0
F566.66666666666663
tp8
tp9
Rp10
ag1
(g2
S'QPointF'
p11
(F2400.0
F433.33333333333331
tp12
tp13
Rp14
ag1
(g2
S'QPointF'
p15
(F2350.0
F300.0
tp16
tp17
Rp18
ag1
(g2
S'QPointF'
p19
(F2301.0
F168.66666666666663
tp20
tp21
Rp22
ag1
(g2
S'QPointF'
p23
(F2401.0
F169.66666666666663
tp24
tp25
Rp26
ag1
(g2
S'QPointF'
p27
(F2499.0
F177.66666666666663
tp28
tp29
Rp30
ag1
(g2
S'QPointF'
p31
(F2602.0
F177.66666666666663
tp32
tp33
Rp34
ag1
(g2
S'QPointF'
p35
(F2695.0
F173.66666666666663
tp36
tp37
Rp38
ag1
(g2
S'QPointF'
p39
(F2167.0
F700.0
tp40
tp41
Rp42
ag1
(g2
S'QPointF'
p43
(F2117.0
F566.66666666666663
tp44
tp45
Rp46
ag1
(g2
S'QPointF'
p47
(F2063.0
F424.33333333333331
tp48
tp49
Rp50
ag1
(g2
S'QPointF'
p51
(F2163.0
F436.33333333333331
tp52
tp53
Rp54
ag1
(g2
S'QPointF'
p55
(F2262.0
F416.33333333333331
tp56
tp57
Rp58
ag1
(g2
S'QPointF'
p59
(F2833.0
F700.0
tp60
tp61
Rp62
ag1
(g2
S'QPointF'
p63
(F2781.0
F557.66666666666663
tp64
tp65
Rp66
ag1
(g2
S'QPointF'
p67
(F2884.0
F566.66666666666663
tp68
tp69
Rp70
a.