(lp0
csip
_unpickle_type
p1
(S'PyQt4.QtCore'
p2
S'QPointF'
p3
(F2500.0
F700.0
tp4
tp5
Rp6
ag1
(g2
S'QPointF'
p7
(F2356.0
F439.11111111111109
tp8
tp9
Rp10
ag1
(g2
S'QPointF'
p11
(F2263.333333333333
F188.66666666666663
tp12
tp13
Rp14
ag1
(g2
S'QPointF'
p15
(F2415.6666666666661
F247.66666666666663
tp16
tp17
Rp18
ag1
(g2
S'QPointF'
p19
(F2606.6666666666661
F440.4444444444444
tp20
tp21
Rp22
ag1
(g2
S'QPointF'
p23
(F2597.333333333333
F259.66666666666663
tp24
tp25
Rp26
ag1
(g2
S'QPointF'
p27
(F2759.3333333333335
F245.33333333333331
tp28
tp29
Rp30
a.