(lp0
csip
_unpickle_type
p1
(S'PyQt4.QtCore'
p2
S'QPointF'
p3
(F2500.0
F700.0
tp4
tp5
Rp6
ag1
(g2
S'QPointF'
p7
(F2450.0
F433.33333333333331
tp8
tp9
Rp10
ag1
(g2
S'QPointF'
p11
(F2398.0
F168.66666666666663
tp12
tp13
Rp14
ag1
(g2
S'QPointF'
p15
(F2499.0
F170.66666666666663
tp16
tp17
Rp18
ag1
(g2
S'QPointF'
p19
(F2601.0
F155.66666666666663
tp20
tp21
Rp22
a.