(lp0
csip
_unpickle_type
p1
(S'PyQt4.QtCore'
p2
S'QPointF'
p3
(F2500.0
F700.0
tp4
tp5
Rp6
ag1
(g2
S'QPointF'
p7
(F2500.0
F617.9487179487179
tp8
tp9
Rp10
ag1
(g2
S'QPointF'
p11
(F2550.0
F494.87179487179486
tp12
tp13
Rp14
ag1
(g2
S'QPointF'
p15
(F2550.0
F412.82051282051282
tp16
tp17
Rp18
ag1
(g2
S'QPointF'
p19
(F2500.0
F371.79487179487177
tp20
tp21
Rp22
ag1
(g2
S'QPointF'
p23
(F2450.0
F330.76923076923072
tp24
tp25
Rp26
ag1
(g2
S'QPointF'
p27
(F2400.0
F289.74358974358972
tp28
tp29
Rp30
ag1
(g2
S'QPointF'
p31
(F2350.0
F248.71794871794867
tp32
tp33
Rp34
ag1
(g2
S'QPointF'
p35
(F2300.0
F207.69230769230762
tp36
tp37
Rp38
ag1
(g2
S'QPointF'
p39
(F2247.0
F163.66666666666663
tp40
tp41
Rp42
ag1
(g2
S'QPointF'
p43
(F2354.0
F166.66666666666663
tp44
tp45
Rp46
ag1
(g2
S'QPointF'
p47
(F2449.0
F176.66666666666663
tp48
tp49
Rp50
ag1
(g2
S'QPointF'
p51
(F2554.0
F181.66666666666663
tp52
tp53
Rp54
ag1
(g2
S'QPointF'
p55
(F2651.0
F178.66666666666663
tp56
tp57
Rp58
ag1
(g2
S'QPointF'
p59
(F2753.0
F148.66666666666663
tp60
tp61
Rp62
ag1
(g2
S'QPointF'
p63
(F2849.0
F181.66666666666663
tp64
tp65
Rp66
ag1
(g2
S'QPointF'
p67
(F2947.0
F173.66666666666663
tp68
tp69
Rp70
ag1
(g2
S'QPointF'
p71
(F3049.0
F180.66666666666663
tp72
tp73
Rp74
ag1
(g2
S'QPointF'
p75
(F3051.0
F160.66666666666663
tp76
tp77
Rp78
ag1
(g2
S'QPointF'
p79
(F3153.0
F162.66666666666663
tp80
tp81
Rp82
ag1
(g2
S'QPointF'
p83
(F3250.0
F152.66666666666663
tp84
tp85
Rp86
ag1
(g2
S'QPointF'
p87
(F3154.0
F185.66666666666663
tp88
tp89
Rp90
ag1
(g2
S'QPointF'
p91
(F3251.0
F155.66666666666663
tp92
tp93
Rp94
a.