(lp0
csip
_unpickle_type
p1
(S'PyQt4.QtCore'
p2
S'QPointF'
p3
(F2500.0
F700.0
tp4
tp5
Rp6
ag1
(g2
S'QPointF'
p7
(F2450.0
F611.11111111111109
tp8
tp9
Rp10
ag1
(g2
S'QPointF'
p11
(F2400.0
F522.22222222222217
tp12
tp13
Rp14
ag1
(g2
S'QPointF'
p15
(F2350.0
F433.33333333333331
tp16
tp17
Rp18
ag1
(g2
S'QPointF'
p19
(F2300.0
F344.4444444444444
tp20
tp21
Rp22
ag1
(g2
S'QPointF'
p23
(F2250.0
F255.55555555555549
tp24
tp25
Rp26
ag1
(g2
S'QPointF'
p27
(F2201.0
F147.66666666666663
tp28
tp29
Rp30
ag1
(g2
S'QPointF'
p31
(F2301.0
F183.66666666666663
tp32
tp33
Rp34
ag1
(g2
S'QPointF'
p35
(F2400.0
F173.66666666666663
tp36
tp37
Rp38
ag1
(g2
S'QPointF'
p39
(F2499.0
F151.66666666666663
tp40
tp41
Rp42
ag1
(g2
S'QPointF'
p43
(F2605.0
F174.66666666666663
tp44
tp45
Rp46
ag1
(g2
S'QPointF'
p47
(F2702.0
F157.66666666666663
tp48
tp49
Rp50
ag1
(g2
S'QPointF'
p51
(F2799.0
F185.66666666666663
tp52
tp53
Rp54
a.