(lp0
csip
_unpickle_type
p1
(S'PyQt4.QtCore'
p2
S'QPointF'
p3
(F2714.8514851485147
F693.06930693069296
tp4
tp5
Rp6
ag1
(g2
S'QPointF'
p7
(F2595.5616251280298
F545.65223100559388
tp8
tp9
Rp10
ag1
(g2
S'QPointF'
p11
(F2544.0594059405939
F451.43437420665134
tp12
tp13
Rp14
ag1
(g2
S'QPointF'
p15
(F2181.1881188118805
F557.93348565625797
tp16
tp17
Rp18
ag1
(g2
S'QPointF'
p19
(F2335.1485148514853
F476.31378522467628
tp20
tp21
Rp22
ag1
(g2
S'QPointF'
p23
(F2043.5643564356437
F528.35745112972825
tp24
tp25
Rp26
ag1
(g2
S'QPointF'
p27
(F2032.5423921702513
F422.71362414756049
tp28
tp29
Rp30
ag1
(g2
S'QPointF'
p31
(F2018.2770001138042
F311.65270373191146
tp32
tp33
Rp34
ag1
(g2
S'QPointF'
p35
(F1961.0988960965055
F147.3639467395015
tp36
tp37
Rp38
ag1
(g2
S'QPointF'
p39
(F2241.0594059405944
F142.83498349834983
tp40
tp41
Rp42
ag1
(g2
S'QPointF'
p43
(F2220.3366336633658
F265.84488448844877
tp44
tp45
Rp46
ag1
(g2
S'QPointF'
p47
(F2648.0
F148.66666666666663
tp48
tp49
Rp50
ag1
(g2
S'QPointF'
p51
(F2750.0
F175.66666666666663
tp52
tp53
Rp54
ag1
(g2
S'QPointF'
p55
(F2849.0
F153.66666666666663
tp56
tp57
Rp58
ag1
(g2
S'QPointF'
p59
(F2946.0
F173.66666666666663
tp60
tp61
Rp62
ag1
(g2
S'QPointF'
p63
(F3047.0
F180.66666666666663
tp64
tp65
Rp66
ag1
(g2
S'QPointF'
p67
(F3149.0
F150.66666666666663
tp68
tp69
Rp70
ag1
(g2
S'QPointF'
p71
(F3252.0
F174.66666666666663
tp72
tp73
Rp74
ag1
(g2
S'QPointF'
p75
(F3349.0
F154.66666666666663
tp76
tp77
Rp78
ag1
(g2
S'QPointF'
p79
(F3446.0
F157.66666666666663
tp80
tp81
Rp82
ag1
(g2
S'QPointF'
p83
(F3552.0
F164.66666666666663
tp84
tp85
Rp86
ag1
(g2
S'QPointF'
p87
(F3648.0
F147.66666666666663
tp88
tp89
Rp90
a.