(lp0
csip
_unpickle_type
p1
(S'PyQt4.QtCore'
p2
S'QPointF'
p3
(F2500.0
F700.0
tp4
tp5
Rp6
ag1
(g2
S'QPointF'
p7
(F2450.0
F566.66666666666663
tp8
tp9
Rp10
ag1
(g2
S'QPointF'
p11
(F2400.0
F433.33333333333331
tp12
tp13
Rp14
ag1
(g2
S'QPointF'
p15
(F2290.5172413793102
F303.44827586206895
tp16
tp17
Rp18
ag1
(g2
S'QPointF'
p19
(F2208.8965517241386
F175.04597701149422
tp20
tp21
Rp22
ag1
(g2
S'QPointF'
p23
(F2353.7241379310349
F171.90804597701151
tp24
tp25
Rp26
ag1
(g2
S'QPointF'
p27
(F2438.344827586207
F279.63218390804593
tp28
tp29
Rp30
ag1
(g2
S'QPointF'
p31
(F2554.1724137931028
F389.32183908045965
tp32
tp33
Rp34
ag1
(g2
S'QPointF'
p35
(F2822.275862068966
F237.59770114942546
tp36
tp37
Rp38
a.