(lp0
csip
_unpickle_type
p1
(S'PyQt4.QtCore'
p2
S'QPointF'
p3
(F2250.9559386973178
F475.85632183908046
tp4
tp5
Rp6
ag1
(g2
S'QPointF'
p7
(F2039.8371647509575
F345.62169312169294
tp8
tp9
Rp10
ag1
(g2
S'QPointF'
p11
(F1908.3505747126437
F255.05062944718111
tp12
tp13
Rp14
ag1
(g2
S'QPointF'
p15
(F1775.545977011494
F190.74849480021885
tp16
tp17
Rp18
ag1
(g2
S'QPointF'
p19
(F1661.4080459770121
F81.986590038314262
tp20
tp21
Rp22
ag1
(g2
S'QPointF'
p23
(F1514.2586206896558
F-4.752326217843347
tp24
tp25
Rp26
ag1
(g2
S'QPointF'
p27
(F1427.0172413793111
F-111.85905856595491
tp28
tp29
Rp30
ag1
(g2
S'QPointF'
p31
(F1376.5574712643679
F-171.47153804050345
tp32
tp33
Rp34
ag1
(g2
S'QPointF'
p35
(F1304.6264367816107
F-249.33689107827058
tp36
tp37
Rp38
ag1
(g2
S'QPointF'
p39
(F1228.0057471264367
F-330.05281882868076
tp40
tp41
Rp42
ag1
(g2
S'QPointF'
p43
(F1166.0057471264367
F-420.92966611932115
tp44
tp45
Rp46
ag1
(g2
S'QPointF'
p47
(F1144.4540229885056
F-481.47318007662852
tp48
tp49
Rp50
ag1
(g2
S'QPointF'
p51
(F1353.1666666666656
F-478.27777777777783
tp52
tp53
Rp54
ag1
(g2
S'QPointF'
p55
(F1347.7643678160907
F-407.93295019157085
tp56
tp57
Rp58
ag1
(g2
S'QPointF'
p59
(F1410.8333333333335
F-340.61111111111109
tp60
tp61
Rp62
ag1
(g2
S'QPointF'
p63
(F1465.1666666666656
F-284.61111111111109
tp64
tp65
Rp66
ag1
(g2
S'QPointF'
p67
(F1541.1666666666679
F-209.27777777777783
tp68
tp69
Rp70
ag1
(g2
S'QPointF'
p71
(F1616.1666666666661
F-146.61111111111109
tp72
tp73
Rp74
ag1
(g2
S'QPointF'
p75
(F1815.8333333333358
F-471.6111111111112
tp76
tp77
Rp78
ag1
(g2
S'QPointF'
p79
(F1937.1666666666679
F-332.94444444444457
tp80
tp81
Rp82
ag1
(g2
S'QPointF'
p83
(F2060.8333333333339
F-202.94444444444457
tp84
tp85
Rp86
ag1
(g2
S'QPointF'
p87
(F2116.1666666666679
F-75.611111111111086
tp88
tp89
Rp90
ag1
(g2
S'QPointF'
p91
(F2176.9814814814818
F46.277777777777828
tp92
tp93
Rp94
ag1
(g2
S'QPointF'
p95
(F2315.4629629629635
F-162.31481481481478
tp96
tp97
Rp98
ag1
(g2
S'QPointF'
p99
(F2473.5740740740748
F-97.5
tp100
tp101
Rp102
ag1
(g2
S'QPointF'
p103
(F2726.9814814814818
F-102.05555555555566
tp104
tp105
Rp106
a.