(lp0
csip
_unpickle_type
p1
(S'PyQt4.QtCore'
p2
S'QPointF'
p3
(F2500.0
F700.0
tp4
tp5
Rp6
ag1
(g2
S'QPointF'
p7
(F2450.0
F623.80952380952385
tp8
tp9
Rp10
ag1
(g2
S'QPointF'
p11
(F2400.0
F547.61904761904759
tp12
tp13
Rp14
ag1
(g2
S'QPointF'
p15
(F2350.0
F471.42857142857144
tp16
tp17
Rp18
ag1
(g2
S'QPointF'
p19
(F2300.0
F395.23809523809524
tp20
tp21
Rp22
ag1
(g2
S'QPointF'
p23
(F2250.0
F319.04761904761904
tp24
tp25
Rp26
ag1
(g2
S'QPointF'
p27
(F2200.0
F242.85714285714289
tp28
tp29
Rp30
ag1
(g2
S'QPointF'
p31
(F2148.0
F149.66666666666663
tp32
tp33
Rp34
ag1
(g2
S'QPointF'
p35
(F2254.0
F175.66666666666663
tp36
tp37
Rp38
ag1
(g2
S'QPointF'
p39
(F2355.0
F167.66666666666663
tp40
tp41
Rp42
ag1
(g2
S'QPointF'
p43
(F2452.0
F147.66666666666663
tp44
tp45
Rp46
ag1
(g2
S'QPointF'
p47
(F2554.0
F158.66666666666663
tp48
tp49
Rp50
ag1
(g2
S'QPointF'
p51
(F2655.0
F165.66666666666663
tp52
tp53
Rp54
ag1
(g2
S'QPointF'
p55
(F2753.0
F163.66666666666663
tp56
tp57
Rp58
ag1
(g2
S'QPointF'
p59
(F2849.0
F177.66666666666663
tp60
tp61
Rp62
a.